	.file	"str_cmp.c"
	.text
	.section	.text.compare_ints,"ax",@progbits
	.p2align 4,,15
	.globl	compare_ints
	.type	compare_ints, @function
compare_ints:
.LFB115:
	.cfi_startproc
	movl	(%rsi), %eax
	cmpl	%eax, (%rdi)
	jl	.L3
	setg	%al
	movzbl	%al, %eax
	ret
	.p2align 4,,10
	.p2align 3
.L3:
	movl	$-1, %eax
	ret
	.cfi_endproc
.LFE115:
	.size	compare_ints, .-compare_ints
	.section	.text.compare_rep_index,"ax",@progbits
	.p2align 4,,15
	.globl	compare_rep_index
	.type	compare_rep_index, @function
compare_rep_index:
.LFB260:
	.cfi_startproc
	movl	(%rsi), %eax
	cmpl	%eax, (%rdi)
	jl	.L7
	setg	%al
	movzbl	%al, %eax
	ret
	.p2align 4,,10
	.p2align 3
.L7:
	movl	$-1, %eax
	ret
	.cfi_endproc
.LFE260:
	.size	compare_rep_index, .-compare_rep_index
	.section	.text.compare_strings_by_len,"ax",@progbits
	.p2align 4,,15
	.globl	compare_strings_by_len
	.type	compare_strings_by_len, @function
compare_strings_by_len:
.LFB312:
	.cfi_startproc
	movl	8(%rsi), %eax
	cmpl	%eax, 8(%rdi)
	jl	.L10
	setg	%al
	movzbl	%al, %eax
	ret
	.p2align 4,,10
	.p2align 3
.L10:
	movl	$-1, %eax
	ret
	.cfi_endproc
.LFE312:
	.size	compare_strings_by_len, .-compare_strings_by_len
	.section	.text.wyhash,"ax",@progbits
	.p2align 4,,15
	.type	wyhash, @function
wyhash:
.LFB75:
	.cfi_startproc
	cmpq	$16, %rsi
	pushq	%rbp
	.cfi_def_cfa_offset 16
	.cfi_offset 6, -16
	pushq	%rbx
	.cfi_def_cfa_offset 24
	.cfi_offset 3, -24
	ja	.L12
	movq	%rdx, %rcx
	movq	%rsi, %r8
.L18:
	movabsq	$-1800455987208640293, %rax
	xorq	%rcx, %rax
	movabsq	$-6884282663029611473, %rcx
	xorq	%rcx, %rdx
	cmpq	$8, %r8
	movq	%rdx, %r9
	ja	.L13
	cmpq	$3, %r8
	jbe	.L14
	movl	-4(%rdi,%r8), %ecx
	movl	(%rdi), %edi
	xorq	%rax, %rcx
	movq	%rdi, %rax
	xorq	%r9, %rax
	mulq	%rcx
	movq	%rax, %rcx
.L15:
	movq	%rsi, %rax
	movabsq	$-6884282663029611473, %rsi
	xorq	%rcx, %rax
	xorq	%rdx, %rsi
	mulq	%rsi
	popq	%rbx
	.cfi_remember_state
	.cfi_def_cfa_offset 16
	popq	%rbp
	.cfi_def_cfa_offset 8
	xorq	%rdx, %rax
	ret
	.p2align 4,,10
	.p2align 3
.L12:
	.cfi_restore_state
	leaq	-17(%rsi), %r8
	movq	%rdx, %rcx
	movabsq	$-6884282663029611473, %rbp
	movabsq	$-1800455987208640293, %rbx
	shrq	$4, %r8
	leaq	1(%r8), %r11
	salq	$4, %r11
	addq	%rdi, %r11
.L17:
	movq	(%rdi), %r9
	movq	8(%rdi), %rax
	addq	$16, %rdi
	xorq	%rbp, %r9
	xorq	%rbx, %rax
	xorq	%rdx, %r9
	xorq	%rax, %rcx
	movq	%r9, %rax
	mulq	%rcx
	cmpq	%r11, %rdi
	movq	%rdx, %r10
	movq	%rax, %rdx
	movq	%r10, %rcx
	jne	.L17
	negq	%r8
	salq	$4, %r8
	leaq	-16(%rsi,%r8), %r8
	jmp	.L18
	.p2align 4,,10
	.p2align 3
.L13:
	xorq	-8(%rdi,%r8), %rax
	movq	%rax, %r8
	movq	(%rdi), %rax
	xorq	%rdx, %rax
	mulq	%r8
	movq	%rax, %rcx
	jmp	.L15
	.p2align 4,,10
	.p2align 3
.L14:
	testq	%r8, %r8
	je	.L16
	leal	-1(%r8), %edx
	shrl	%r8d
	movzbl	(%rdi,%rdx), %ecx
	movzbl	(%rdi), %edx
	salq	$16, %rdx
	orq	%rdx, %rcx
	movzbl	(%rdi,%r8), %edx
	salq	$8, %rdx
	orq	%rdx, %rcx
	xorq	%r9, %rcx
	mulq	%rcx
	movq	%rax, %rcx
	jmp	.L15
.L16:
	mulq	%rdx
	movq	%rax, %rcx
	jmp	.L15
	.cfi_endproc
.LFE75:
	.size	wyhash, .-wyhash
	.section	.rodata.str1.1,"aMS",@progbits,1
.LC1:
	.string	"hhmm12"
.LC2:
	.string	"hhmm24"
.LC3:
	.string	"hhmmss12"
.LC4:
	.string	"hhmmss24"
.LC5:
	.string	"no_time"
.LC6:
	.string	"unknown enum value"
	.section	.text.time__FormatTime_str,"ax",@progbits
	.p2align 4,,15
	.globl	time__FormatTime_str
	.type	time__FormatTime_str, @function
time__FormatTime_str:
.LFB80:
	.cfi_startproc
	cmpl	$4, %edi
	ja	.L23
	leaq	.L25(%rip), %rdx
	movl	%edi, %edi
	movslq	(%rdx,%rdi,4), %rax
	addq	%rdx, %rax
	jmp	*%rax
	.section	.rodata
	.align 4
	.align 4
.L25:
	.long	.L24-.L25
	.long	.L26-.L25
	.long	.L27-.L25
	.long	.L28-.L25
	.long	.L29-.L25
	.section	.text.time__FormatTime_str
	.p2align 4,,10
	.p2align 3
.L28:
	leaq	.LC4(%rip), %rax
	movl	$8, %edx
	ret
	.p2align 4,,10
	.p2align 3
.L29:
	leaq	.LC5(%rip), %rax
	movl	$7, %edx
	ret
	.p2align 4,,10
	.p2align 3
.L24:
	leaq	.LC1(%rip), %rax
	movl	$6, %edx
	ret
	.p2align 4,,10
	.p2align 3
.L26:
	leaq	.LC2(%rip), %rax
	movl	$6, %edx
	ret
	.p2align 4,,10
	.p2align 3
.L27:
	leaq	.LC3(%rip), %rax
	movl	$8, %edx
	ret
	.p2align 4,,10
	.p2align 3
.L23:
	leaq	.LC6(%rip), %rax
	movl	$18, %edx
	ret
	.cfi_endproc
.LFE80:
	.size	time__FormatTime_str, .-time__FormatTime_str
	.section	.rodata.str1.1
.LC7:
	.string	"ddmmyy"
.LC8:
	.string	"ddmmyyyy"
.LC9:
	.string	"mmddyy"
.LC10:
	.string	"mmddyyyy"
.LC11:
	.string	"mmmd"
.LC12:
	.string	"mmmdd"
.LC13:
	.string	"mmmddyyyy"
.LC14:
	.string	"no_date"
.LC15:
	.string	"yyyymmdd"
	.section	.text.time__FormatDate_str,"ax",@progbits
	.p2align 4,,15
	.globl	time__FormatDate_str
	.type	time__FormatDate_str, @function
time__FormatDate_str:
.LFB81:
	.cfi_startproc
	cmpl	$8, %edi
	ja	.L32
	leaq	.L34(%rip), %rdx
	movl	%edi, %edi
	movslq	(%rdx,%rdi,4), %rax
	addq	%rdx, %rax
	jmp	*%rax
	.section	.rodata
	.align 4
	.align 4
.L34:
	.long	.L33-.L34
	.long	.L35-.L34
	.long	.L36-.L34
	.long	.L37-.L34
	.long	.L38-.L34
	.long	.L39-.L34
	.long	.L40-.L34
	.long	.L41-.L34
	.long	.L42-.L34
	.section	.text.time__FormatDate_str
	.p2align 4,,10
	.p2align 3
.L41:
	leaq	.LC14(%rip), %rax
	movl	$7, %edx
	ret
	.p2align 4,,10
	.p2align 3
.L42:
	leaq	.LC15(%rip), %rax
	movl	$8, %edx
	ret
	.p2align 4,,10
	.p2align 3
.L33:
	leaq	.LC7(%rip), %rax
	movl	$6, %edx
	ret
	.p2align 4,,10
	.p2align 3
.L35:
	leaq	.LC8(%rip), %rax
	movl	$8, %edx
	ret
	.p2align 4,,10
	.p2align 3
.L36:
	leaq	.LC9(%rip), %rax
	movl	$6, %edx
	ret
	.p2align 4,,10
	.p2align 3
.L37:
	leaq	.LC10(%rip), %rax
	movl	$8, %edx
	ret
	.p2align 4,,10
	.p2align 3
.L38:
	leaq	.LC11(%rip), %rax
	movl	$4, %edx
	ret
	.p2align 4,,10
	.p2align 3
.L39:
	leaq	.LC12(%rip), %rax
	movl	$5, %edx
	ret
	.p2align 4,,10
	.p2align 3
.L40:
	leaq	.LC13(%rip), %rax
	movl	$9, %edx
	ret
	.p2align 4,,10
	.p2align 3
.L32:
	leaq	.LC6(%rip), %rax
	movl	$18, %edx
	ret
	.cfi_endproc
.LFE81:
	.size	time__FormatDate_str, .-time__FormatDate_str
	.section	.rodata.str1.1
.LC16:
	.string	"dot"
.LC17:
	.string	"hyphen"
.LC18:
	.string	"slash"
.LC19:
	.string	"space"
	.section	.text.time__FormatDelimiter_str,"ax",@progbits
	.p2align 4,,15
	.globl	time__FormatDelimiter_str
	.type	time__FormatDelimiter_str, @function
time__FormatDelimiter_str:
.LFB82:
	.cfi_startproc
	cmpl	$1, %edi
	je	.L46
	jb	.L47
	cmpl	$2, %edi
	je	.L48
	leaq	.LC6(%rip), %rdx
	leaq	.LC19(%rip), %rax
	cmpl	$3, %edi
	movl	$18, %ecx
	cmovne	%rdx, %rax
	movl	$5, %edx
	cmovne	%rcx, %rdx
	ret
	.p2align 4,,10
	.p2align 3
.L48:
	leaq	.LC18(%rip), %rax
	movl	$5, %edx
	ret
	.p2align 4,,10
	.p2align 3
.L47:
	leaq	.LC16(%rip), %rax
	movl	$3, %edx
	ret
	.p2align 4,,10
	.p2align 3
.L46:
	leaq	.LC17(%rip), %rax
	movl	$6, %edx
	ret
	.cfi_endproc
.LFE82:
	.size	time__FormatDelimiter_str, .-time__FormatDelimiter_str
	.section	.rodata.str1.8,"aMS",@progbits,1
	.align 8
.LC20:
	.string	"00102030405060708090011121314151617181910212223242526272829203132333435363738393041424344454647484940515253545556575859506162636465666768696071727374757677787970818283848586878889809192939495969798999"
	.section	.rodata.str1.1
.LC21:
	.string	"MonTueWedThuFriSatSun"
	.section	.rodata.str1.8
	.align 8
.LC22:
	.string	"JanFebMarAprMayJunJulAugSepOctNovDec"
	.section	.rodata.str1.1
.LC23:
	.string	"Overflow Error"
.LC24:
	.string	"Divide Error"
	.section	.text.vinit_string_literals,"ax",@progbits
	.p2align 4,,15
	.globl	vinit_string_literals
	.type	vinit_string_literals, @function
vinit_string_literals:
.LFB83:
	.cfi_startproc
	leaq	.LC20(%rip), %rax
	movl	$200, 8+_const_digit_pairs(%rip)
	movl	$21, 8+_const_time__days_string(%rip)
	movl	$36, 8+_const_time__months_string(%rip)
	movl	$14, 8+_const_math__bits__overflow_error(%rip)
	movq	%rax, _const_digit_pairs(%rip)
	leaq	.LC21(%rip), %rax
	movl	$12, 8+_const_math__bits__divide_error(%rip)
	movq	%rax, _const_time__days_string(%rip)
	leaq	.LC22(%rip), %rax
	movq	%rax, _const_time__months_string(%rip)
	leaq	.LC23(%rip), %rax
	movq	%rax, _const_math__bits__overflow_error(%rip)
	leaq	.LC24(%rip), %rax
	movq	%rax, _const_math__bits__divide_error(%rip)
	ret
	.cfi_endproc
.LFE83:
	.size	vinit_string_literals, .-vinit_string_literals
	.section	.text._STR_TMP,"ax",@progbits
	.p2align 4,,15
	.globl	_STR_TMP
	.type	_STR_TMP, @function
_STR_TMP:
.LFB85:
	.cfi_startproc
	subq	$216, %rsp
	.cfi_def_cfa_offset 224
	testb	%al, %al
	movq	%rsi, 40(%rsp)
	movq	%rdx, 48(%rsp)
	movq	%rcx, 56(%rsp)
	movq	%r8, 64(%rsp)
	movq	%r9, 72(%rsp)
	je	.L53
	movaps	%xmm0, 80(%rsp)
	movaps	%xmm1, 96(%rsp)
	movaps	%xmm2, 112(%rsp)
	movaps	%xmm3, 128(%rsp)
	movaps	%xmm4, 144(%rsp)
	movaps	%xmm5, 160(%rsp)
	movaps	%xmm6, 176(%rsp)
	movaps	%xmm7, 192(%rsp)
.L53:
	movq	%fs:40, %rax
	movq	%rax, 24(%rsp)
	xorl	%eax, %eax
	leaq	224(%rsp), %rax
	movq	%rdi, %rcx
	leaq	g_str_buf(%rip), %rdi
	movl	$1024, %edx
	movl	$1, %esi
	movq	%rsp, %r8
	movq	%rax, 8(%rsp)
	leaq	32(%rsp), %rax
	movl	$8, (%rsp)
	movl	$48, 4(%rsp)
	movq	%rax, 16(%rsp)
	call	__vsprintf_chk@PLT
	leaq	g_str_buf(%rip), %rsi
	movq	%rsi, %rdx
.L54:
	movl	(%rdx), %ecx
	addq	$4, %rdx
	leal	-16843009(%rcx), %eax
	notl	%ecx
	andl	%ecx, %eax
	andl	$-2139062144, %eax
	je	.L54
	movl	%eax, %ecx
	shrl	$16, %ecx
	testl	$32896, %eax
	cmove	%ecx, %eax
	leaq	2(%rdx), %rcx
	movl	%eax, %edi
	cmove	%rcx, %rdx
	addb	%al, %dil
	leaq	g_str_buf(%rip), %rax
	sbbq	$3, %rdx
	subl	%esi, %edx
	movq	24(%rsp), %rsi
	xorq	%fs:40, %rsi
	jne	.L60
	addq	$216, %rsp
	.cfi_remember_state
	.cfi_def_cfa_offset 8
	ret
.L60:
	.cfi_restore_state
	call	__stack_chk_fail@PLT
	.cfi_endproc
.LFE85:
	.size	_STR_TMP, .-_STR_TMP
	.section	.text.new_array_from_c_array_no_alloc,"ax",@progbits
	.p2align 4,,15
	.globl	new_array_from_c_array_no_alloc
	.type	new_array_from_c_array_no_alloc, @function
new_array_from_c_array_no_alloc:
.LFB89:
	.cfi_startproc
	movq	%rdi, %rax
	movq	%r8, (%rdi)
	movl	%esi, 8(%rdi)
	movl	%edx, 12(%rdi)
	movl	%ecx, 16(%rdi)
	ret
	.cfi_endproc
.LFE89:
	.size	new_array_from_c_array_no_alloc, .-new_array_from_c_array_no_alloc
	.section	.text.array_sort_with_compare,"ax",@progbits
	.p2align 4,,15
	.globl	array_sort_with_compare
	.type	array_sort_with_compare, @function
array_sort_with_compare:
.LFB92:
	.cfi_startproc
	movq	%rsi, %rcx
	movslq	16(%rdi), %rdx
	movslq	8(%rdi), %rsi
	movq	(%rdi), %rdi
	jmp	qsort@PLT
	.cfi_endproc
.LFE92:
	.size	array_sort_with_compare, .-array_sort_with_compare
	.section	.text.array_clear,"ax",@progbits
	.p2align 4,,15
	.globl	array_clear
	.type	array_clear, @function
array_clear:
.LFB96:
	.cfi_startproc
	movl	$0, 8(%rdi)
	ret
	.cfi_endproc
.LFE96:
	.size	array_clear, .-array_clear
	.section	.text.array_trim,"ax",@progbits
	.p2align 4,,15
	.globl	array_trim
	.type	array_trim, @function
array_trim:
.LFB97:
	.cfi_startproc
	cmpl	%esi, 8(%rdi)
	jle	.L64
	movl	%esi, 8(%rdi)
.L64:
	rep ret
	.cfi_endproc
.LFE97:
	.size	array_trim, .-array_trim
	.section	.text.array_free,"ax",@progbits
	.p2align 4,,15
	.globl	array_free
	.type	array_free, @function
array_free:
.LFB109:
	.cfi_startproc
	movq	8(%rsp), %rdi
	jmp	free@PLT
	.cfi_endproc
.LFE109:
	.size	array_free, .-array_free
	.section	.text.array_int_sort,"ax",@progbits
	.p2align 4,,15
	.globl	array_int_sort
	.type	array_int_sort, @function
array_int_sort:
.LFB116:
	.cfi_startproc
	movslq	16(%rdi), %rdx
	movslq	8(%rdi), %rsi
	leaq	compare_ints(%rip), %rcx
	movq	(%rdi), %rdi
	jmp	qsort@PLT
	.cfi_endproc
.LFE116:
	.size	array_int_sort, .-array_int_sort
	.section	.text.array_int_reduce,"ax",@progbits
	.p2align 4,,15
	.globl	array_int_reduce
	.type	array_int_reduce, @function
array_int_reduce:
.LFB121:
	.cfi_startproc
	pushq	%r12
	.cfi_def_cfa_offset 16
	.cfi_offset 12, -16
	pushq	%rbp
	.cfi_def_cfa_offset 24
	.cfi_offset 6, -24
	movl	%esi, %eax
	pushq	%rbx
	.cfi_def_cfa_offset 32
	.cfi_offset 3, -32
	movl	40(%rsp), %ecx
	testl	%ecx, %ecx
	jle	.L68
	movq	32(%rsp), %rdx
	subl	$1, %ecx
	movq	%rdi, %rbp
	leaq	4(%rdx), %rbx
	leaq	(%rbx,%rcx,4), %r12
	jmp	.L70
	.p2align 4,,10
	.p2align 3
.L74:
	addq	$4, %rbx
.L70:
	movl	(%rdx), %esi
	movl	%eax, %edi
	call	*%rbp
	cmpq	%r12, %rbx
	movq	%rbx, %rdx
	jne	.L74
.L68:
	popq	%rbx
	.cfi_def_cfa_offset 24
	popq	%rbp
	.cfi_def_cfa_offset 16
	popq	%r12
	.cfi_def_cfa_offset 8
	ret
	.cfi_endproc
.LFE121:
	.size	array_int_reduce, .-array_int_reduce
	.section	.text.compare_i64,"ax",@progbits
	.p2align 4,,15
	.globl	compare_i64
	.type	compare_i64, @function
compare_i64:
.LFB123:
	.cfi_startproc
	movq	(%rsi), %rax
	cmpq	%rax, (%rdi)
	jl	.L77
	setg	%al
	movzbl	%al, %eax
	ret
	.p2align 4,,10
	.p2align 3
.L77:
	movl	$-1, %eax
	ret
	.cfi_endproc
.LFE123:
	.size	compare_i64, .-compare_i64
	.section	.text.compare_f64,"ax",@progbits
	.p2align 4,,15
	.globl	compare_f64
	.type	compare_f64, @function
compare_f64:
.LFB124:
	.cfi_startproc
	movsd	(%rdi), %xmm1
	movsd	(%rsi), %xmm0
	ucomisd	%xmm1, %xmm0
	ja	.L80
	xorl	%eax, %eax
	ucomisd	%xmm0, %xmm1
	seta	%al
	ret
	.p2align 4,,10
	.p2align 3
.L80:
	movl	$-1, %eax
	ret
	.cfi_endproc
.LFE124:
	.size	compare_f64, .-compare_f64
	.section	.text.compare_f32,"ax",@progbits
	.p2align 4,,15
	.globl	compare_f32
	.type	compare_f32, @function
compare_f32:
.LFB125:
	.cfi_startproc
	movss	(%rdi), %xmm1
	movss	(%rsi), %xmm0
	ucomiss	%xmm1, %xmm0
	ja	.L83
	xorl	%eax, %eax
	ucomiss	%xmm0, %xmm1
	seta	%al
	ret
	.p2align 4,,10
	.p2align 3
.L83:
	movl	$-1, %eax
	ret
	.cfi_endproc
.LFE125:
	.size	compare_f32, .-compare_f32
	.section	.text.v_exit,"ax",@progbits
	.p2align 4,,15
	.globl	v_exit
	.type	v_exit, @function
v_exit:
.LFB127:
	.cfi_startproc
	subq	$8, %rsp
	.cfi_def_cfa_offset 16
	call	exit@PLT
	.cfi_endproc
.LFE127:
	.size	v_exit, .-v_exit
	.section	.text.isnil,"ax",@progbits
	.p2align 4,,15
	.globl	isnil
	.type	isnil, @function
isnil:
.LFB128:
	.cfi_startproc
	xorl	%eax, %eax
	testq	%rdi, %rdi
	sete	%al
	ret
	.cfi_endproc
.LFE128:
	.size	isnil, .-isnil
	.section	.rodata.str1.1
.LC25:
	.string	"%.*s"
	.section	.text.print,"ax",@progbits
	.p2align 4,,15
	.globl	print
	.type	print, @function
print:
.LFB135:
	.cfi_startproc
	movl	%esi, %edx
	leaq	.LC25(%rip), %rsi
	movq	%rdi, %rcx
	xorl	%eax, %eax
	movl	$1, %edi
	jmp	__printf_chk@PLT
	.cfi_endproc
.LFE135:
	.size	print, .-print
	.section	.text.looo,"ax",@progbits
	.p2align 4,,15
	.globl	looo
	.type	looo, @function
looo:
.LFB136:
	.cfi_startproc
	rep ret
	.cfi_endproc
.LFE136:
	.size	looo, .-looo
	.section	.text.v_calloc,"ax",@progbits
	.p2align 4,,15
	.globl	v_calloc
	.type	v_calloc, @function
v_calloc:
.LFB138:
	.cfi_startproc
	movslq	%edi, %rdi
	movl	$1, %esi
	jmp	calloc@PLT
	.cfi_endproc
.LFE138:
	.size	v_calloc, .-v_calloc
	.section	.text.v_free,"ax",@progbits
	.p2align 4,,15
	.globl	v_free
	.type	v_free, @function
v_free:
.LFB140:
	.cfi_startproc
	jmp	free@PLT
	.cfi_endproc
.LFE140:
	.size	v_free, .-v_free
	.section	.text.v_ptr_free,"ax",@progbits
	.p2align 4,,15
	.globl	v_ptr_free
	.type	v_ptr_free, @function
v_ptr_free:
.LFB563:
	.cfi_startproc
	jmp	free@PLT
	.cfi_endproc
.LFE563:
	.size	v_ptr_free, .-v_ptr_free
	.section	.text.is_atty,"ax",@progbits
	.p2align 4,,15
	.globl	is_atty
	.type	is_atty, @function
is_atty:
.LFB143:
	.cfi_startproc
	jmp	isatty@PLT
	.cfi_endproc
.LFE143:
	.size	is_atty, .-is_atty
	.section	.text.builtin_init,"ax",@progbits
	.p2align 4,,15
	.globl	builtin_init
	.type	builtin_init, @function
builtin_init:
.LFB561:
	.cfi_startproc
	rep ret
	.cfi_endproc
.LFE561:
	.size	builtin_init, .-builtin_init
	.section	.rodata.str1.1
.LC26:
	.string	"%.*s\n"
	.section	.text.println,"ax",@progbits
	.p2align 4,,15
	.globl	println
	.type	println, @function
println:
.LFB145:
	.cfi_startproc
	movl	%esi, %edx
	leaq	.LC26(%rip), %rsi
	movq	%rdi, %rcx
	xorl	%eax, %eax
	movl	$1, %edi
	jmp	__printf_chk@PLT
	.cfi_endproc
.LFE145:
	.size	println, .-println
	.section	.rodata.str1.8
	.align 8
.LC27:
	.string	"not implemented, see builtin_windows.v"
	.section	.text.print_backtrace_skipping_top_frames_msvc,"ax",@progbits
	.p2align 4,,15
	.globl	print_backtrace_skipping_top_frames_msvc
	.type	print_backtrace_skipping_top_frames_msvc, @function
print_backtrace_skipping_top_frames_msvc:
.LFB146:
	.cfi_startproc
	leaq	.LC27(%rip), %rcx
	leaq	.LC26(%rip), %rsi
	subq	$8, %rsp
	.cfi_def_cfa_offset 16
	movl	$38, %edx
	movl	$1, %edi
	xorl	%eax, %eax
	call	__printf_chk@PLT
	xorl	%eax, %eax
	addq	$8, %rsp
	.cfi_def_cfa_offset 8
	ret
	.cfi_endproc
.LFE146:
	.size	print_backtrace_skipping_top_frames_msvc, .-print_backtrace_skipping_top_frames_msvc
	.section	.text.print_backtrace_skipping_top_frames_mingw,"ax",@progbits
	.p2align 4,,15
	.globl	print_backtrace_skipping_top_frames_mingw
	.type	print_backtrace_skipping_top_frames_mingw, @function
print_backtrace_skipping_top_frames_mingw:
.LFB565:
	.cfi_startproc
	leaq	.LC27(%rip), %rcx
	leaq	.LC26(%rip), %rsi
	subq	$8, %rsp
	.cfi_def_cfa_offset 16
	movl	$38, %edx
	movl	$1, %edi
	xorl	%eax, %eax
	call	__printf_chk@PLT
	xorl	%eax, %eax
	addq	$8, %rsp
	.cfi_def_cfa_offset 8
	ret
	.cfi_endproc
.LFE565:
	.size	print_backtrace_skipping_top_frames_mingw, .-print_backtrace_skipping_top_frames_mingw
	.section	.text.print_backtrace_skipping_top_frames_mac,"ax",@progbits
	.p2align 4,,15
	.globl	print_backtrace_skipping_top_frames_mac
	.type	print_backtrace_skipping_top_frames_mac, @function
print_backtrace_skipping_top_frames_mac:
.LFB149:
	.cfi_startproc
	movl	$1, %eax
	ret
	.cfi_endproc
.LFE149:
	.size	print_backtrace_skipping_top_frames_mac, .-print_backtrace_skipping_top_frames_mac
	.section	.text.print_backtrace_skipping_top_frames_freebsd,"ax",@progbits
	.p2align 4,,15
	.globl	print_backtrace_skipping_top_frames_freebsd
	.type	print_backtrace_skipping_top_frames_freebsd, @function
print_backtrace_skipping_top_frames_freebsd:
.LFB567:
	.cfi_startproc
	movl	$1, %eax
	ret
	.cfi_endproc
.LFE567:
	.size	print_backtrace_skipping_top_frames_freebsd, .-print_backtrace_skipping_top_frames_freebsd
	.section	.text.f32_abs,"ax",@progbits
	.p2align 4,,15
	.globl	f32_abs
	.type	f32_abs, @function
f32_abs:
.LFB158:
	.cfi_startproc
	pxor	%xmm1, %xmm1
	ucomiss	%xmm0, %xmm1
	ja	.L105
	rep ret
	.p2align 4,,10
	.p2align 3
.L105:
	xorps	.LC29(%rip), %xmm0
	ret
	.cfi_endproc
.LFE158:
	.size	f32_abs, .-f32_abs
	.section	.text.f64_abs,"ax",@progbits
	.p2align 4,,15
	.globl	f64_abs
	.type	f64_abs, @function
f64_abs:
.LFB159:
	.cfi_startproc
	pxor	%xmm1, %xmm1
	ucomisd	%xmm0, %xmm1
	ja	.L110
	rep ret
	.p2align 4,,10
	.p2align 3
.L110:
	xorpd	.LC31(%rip), %xmm0
	ret
	.cfi_endproc
.LFE159:
	.size	f64_abs, .-f64_abs
	.section	.text.f64_eq,"ax",@progbits
	.p2align 4,,15
	.globl	f64_eq
	.type	f64_eq, @function
f64_eq:
.LFB160:
	.cfi_startproc
	subsd	%xmm1, %xmm0
	pxor	%xmm1, %xmm1
	ucomisd	%xmm0, %xmm1
	jbe	.L112
	xorpd	.LC31(%rip), %xmm0
.L112:
	xorl	%eax, %eax
	movsd	.LC32(%rip), %xmm1
	ucomisd	%xmm0, %xmm1
	setnb	%al
	ret
	.cfi_endproc
.LFE160:
	.size	f64_eq, .-f64_eq
	.section	.text.f32_eq,"ax",@progbits
	.p2align 4,,15
	.globl	f32_eq
	.type	f32_eq, @function
f32_eq:
.LFB161:
	.cfi_startproc
	subss	%xmm1, %xmm0
	pxor	%xmm1, %xmm1
	ucomiss	%xmm0, %xmm1
	jbe	.L116
	xorps	.LC29(%rip), %xmm0
.L116:
	movss	.LC33(%rip), %xmm1
	xorl	%eax, %eax
	ucomiss	%xmm0, %xmm1
	setnb	%al
	ret
	.cfi_endproc
.LFE161:
	.size	f32_eq, .-f32_eq
	.section	.text.f64_eqbit,"ax",@progbits
	.p2align 4,,15
	.globl	f64_eqbit
	.type	f64_eqbit, @function
f64_eqbit:
.LFB162:
	.cfi_startproc
	xorl	%eax, %eax
	movl	$0, %edx
	ucomisd	%xmm1, %xmm0
	setnp	%al
	cmovne	%edx, %eax
	ret
	.cfi_endproc
.LFE162:
	.size	f64_eqbit, .-f64_eqbit
	.section	.text.f32_eqbit,"ax",@progbits
	.p2align 4,,15
	.globl	f32_eqbit
	.type	f32_eqbit, @function
f32_eqbit:
.LFB163:
	.cfi_startproc
	xorl	%eax, %eax
	movl	$0, %edx
	ucomiss	%xmm1, %xmm0
	setnp	%al
	cmovne	%edx, %eax
	ret
	.cfi_endproc
.LFE163:
	.size	f32_eqbit, .-f32_eqbit
	.section	.text.f64_ne,"ax",@progbits
	.p2align 4,,15
	.globl	f64_ne
	.type	f64_ne, @function
f64_ne:
.LFB164:
	.cfi_startproc
	subsd	%xmm1, %xmm0
	pxor	%xmm1, %xmm1
	ucomisd	%xmm0, %xmm1
	jbe	.L122
	xorpd	.LC31(%rip), %xmm0
.L122:
	xorl	%eax, %eax
	movsd	.LC32(%rip), %xmm1
	ucomisd	%xmm0, %xmm1
	setb	%al
	ret
	.cfi_endproc
.LFE164:
	.size	f64_ne, .-f64_ne
	.section	.text.f32_ne,"ax",@progbits
	.p2align 4,,15
	.globl	f32_ne
	.type	f32_ne, @function
f32_ne:
.LFB165:
	.cfi_startproc
	subss	%xmm1, %xmm0
	pxor	%xmm1, %xmm1
	ucomiss	%xmm0, %xmm1
	jbe	.L126
	xorps	.LC29(%rip), %xmm0
.L126:
	movss	.LC33(%rip), %xmm1
	xorl	%eax, %eax
	ucomiss	%xmm0, %xmm1
	setb	%al
	ret
	.cfi_endproc
.LFE165:
	.size	f32_ne, .-f32_ne
	.section	.text.f64_nebit,"ax",@progbits
	.p2align 4,,15
	.globl	f64_nebit
	.type	f64_nebit, @function
f64_nebit:
.LFB166:
	.cfi_startproc
	xorl	%eax, %eax
	movl	$1, %edx
	ucomisd	%xmm1, %xmm0
	setp	%al
	cmovne	%edx, %eax
	ret
	.cfi_endproc
.LFE166:
	.size	f64_nebit, .-f64_nebit
	.section	.text.f32_nebit,"ax",@progbits
	.p2align 4,,15
	.globl	f32_nebit
	.type	f32_nebit, @function
f32_nebit:
.LFB167:
	.cfi_startproc
	xorl	%eax, %eax
	movl	$1, %edx
	ucomiss	%xmm1, %xmm0
	setp	%al
	cmovne	%edx, %eax
	ret
	.cfi_endproc
.LFE167:
	.size	f32_nebit, .-f32_nebit
	.section	.text.f64_lt,"ax",@progbits
	.p2align 4,,15
	.globl	f64_lt
	.type	f64_lt, @function
f64_lt:
.LFB168:
	.cfi_startproc
	movapd	%xmm0, %xmm2
	pxor	%xmm3, %xmm3
	subsd	%xmm1, %xmm2
	ucomisd	%xmm2, %xmm3
	jbe	.L132
	xorpd	.LC31(%rip), %xmm2
.L132:
	xorl	%eax, %eax
	movsd	.LC32(%rip), %xmm3
	ucomisd	%xmm2, %xmm3
	jnb	.L131
	xorl	%eax, %eax
	ucomisd	%xmm0, %xmm1
	seta	%al
.L131:
	rep ret
	.cfi_endproc
.LFE168:
	.size	f64_lt, .-f64_lt
	.section	.text.f32_lt,"ax",@progbits
	.p2align 4,,15
	.globl	f32_lt
	.type	f32_lt, @function
f32_lt:
.LFB169:
	.cfi_startproc
	movaps	%xmm0, %xmm2
	pxor	%xmm3, %xmm3
	subss	%xmm1, %xmm2
	ucomiss	%xmm2, %xmm3
	jbe	.L138
	xorps	.LC29(%rip), %xmm2
.L138:
	movss	.LC33(%rip), %xmm3
	xorl	%eax, %eax
	ucomiss	%xmm2, %xmm3
	jnb	.L137
	xorl	%eax, %eax
	ucomiss	%xmm0, %xmm1
	seta	%al
.L137:
	rep ret
	.cfi_endproc
.LFE169:
	.size	f32_lt, .-f32_lt
	.section	.text.f64_ltbit,"ax",@progbits
	.p2align 4,,15
	.globl	f64_ltbit
	.type	f64_ltbit, @function
f64_ltbit:
.LFB170:
	.cfi_startproc
	xorl	%eax, %eax
	ucomisd	%xmm0, %xmm1
	seta	%al
	ret
	.cfi_endproc
.LFE170:
	.size	f64_ltbit, .-f64_ltbit
	.section	.text.f32_ltbit,"ax",@progbits
	.p2align 4,,15
	.globl	f32_ltbit
	.type	f32_ltbit, @function
f32_ltbit:
.LFB171:
	.cfi_startproc
	xorl	%eax, %eax
	ucomiss	%xmm0, %xmm1
	seta	%al
	ret
	.cfi_endproc
.LFE171:
	.size	f32_ltbit, .-f32_ltbit
	.section	.text.f64_le,"ax",@progbits
	.p2align 4,,15
	.globl	f64_le
	.type	f64_le, @function
f64_le:
.LFB172:
	.cfi_startproc
	movapd	%xmm0, %xmm2
	pxor	%xmm3, %xmm3
	subsd	%xmm1, %xmm2
	ucomisd	%xmm2, %xmm3
	jbe	.L146
	xorpd	.LC31(%rip), %xmm2
.L146:
	movl	$1, %eax
	movsd	.LC32(%rip), %xmm3
	ucomisd	%xmm2, %xmm3
	jnb	.L145
	xorl	%eax, %eax
	ucomisd	%xmm1, %xmm0
	setbe	%al
.L145:
	rep ret
	.cfi_endproc
.LFE172:
	.size	f64_le, .-f64_le
	.section	.text.f32_le,"ax",@progbits
	.p2align 4,,15
	.globl	f32_le
	.type	f32_le, @function
f32_le:
.LFB173:
	.cfi_startproc
	movaps	%xmm0, %xmm2
	pxor	%xmm3, %xmm3
	subss	%xmm1, %xmm2
	ucomiss	%xmm2, %xmm3
	jbe	.L152
	xorps	.LC29(%rip), %xmm2
.L152:
	movss	.LC33(%rip), %xmm3
	movl	$1, %eax
	ucomiss	%xmm2, %xmm3
	jnb	.L151
	xorl	%eax, %eax
	ucomiss	%xmm1, %xmm0
	setbe	%al
.L151:
	rep ret
	.cfi_endproc
.LFE173:
	.size	f32_le, .-f32_le
	.section	.text.f64_lebit,"ax",@progbits
	.p2align 4,,15
	.globl	f64_lebit
	.type	f64_lebit, @function
f64_lebit:
.LFB174:
	.cfi_startproc
	xorl	%eax, %eax
	ucomisd	%xmm0, %xmm1
	setnb	%al
	ret
	.cfi_endproc
.LFE174:
	.size	f64_lebit, .-f64_lebit
	.section	.text.f32_lebit,"ax",@progbits
	.p2align 4,,15
	.globl	f32_lebit
	.type	f32_lebit, @function
f32_lebit:
.LFB175:
	.cfi_startproc
	xorl	%eax, %eax
	ucomiss	%xmm0, %xmm1
	setnb	%al
	ret
	.cfi_endproc
.LFE175:
	.size	f32_lebit, .-f32_lebit
	.section	.text.f64_gt,"ax",@progbits
	.p2align 4,,15
	.globl	f64_gt
	.type	f64_gt, @function
f64_gt:
.LFB176:
	.cfi_startproc
	movapd	%xmm0, %xmm2
	pxor	%xmm3, %xmm3
	subsd	%xmm1, %xmm2
	ucomisd	%xmm2, %xmm3
	jbe	.L160
	xorpd	.LC31(%rip), %xmm2
.L160:
	xorl	%eax, %eax
	movsd	.LC32(%rip), %xmm3
	ucomisd	%xmm2, %xmm3
	jnb	.L159
	xorl	%eax, %eax
	ucomisd	%xmm1, %xmm0
	seta	%al
.L159:
	rep ret
	.cfi_endproc
.LFE176:
	.size	f64_gt, .-f64_gt
	.section	.text.f32_gt,"ax",@progbits
	.p2align 4,,15
	.globl	f32_gt
	.type	f32_gt, @function
f32_gt:
.LFB177:
	.cfi_startproc
	movaps	%xmm0, %xmm2
	pxor	%xmm3, %xmm3
	subss	%xmm1, %xmm2
	ucomiss	%xmm2, %xmm3
	jbe	.L166
	xorps	.LC29(%rip), %xmm2
.L166:
	movss	.LC33(%rip), %xmm3
	xorl	%eax, %eax
	ucomiss	%xmm2, %xmm3
	jnb	.L165
	xorl	%eax, %eax
	ucomiss	%xmm1, %xmm0
	seta	%al
.L165:
	rep ret
	.cfi_endproc
.LFE177:
	.size	f32_gt, .-f32_gt
	.section	.text.f64_gtbit,"ax",@progbits
	.p2align 4,,15
	.globl	f64_gtbit
	.type	f64_gtbit, @function
f64_gtbit:
.LFB178:
	.cfi_startproc
	xorl	%eax, %eax
	ucomisd	%xmm1, %xmm0
	seta	%al
	ret
	.cfi_endproc
.LFE178:
	.size	f64_gtbit, .-f64_gtbit
	.section	.text.f32_gtbit,"ax",@progbits
	.p2align 4,,15
	.globl	f32_gtbit
	.type	f32_gtbit, @function
f32_gtbit:
.LFB179:
	.cfi_startproc
	xorl	%eax, %eax
	ucomiss	%xmm1, %xmm0
	seta	%al
	ret
	.cfi_endproc
.LFE179:
	.size	f32_gtbit, .-f32_gtbit
	.section	.text.f64_ge,"ax",@progbits
	.p2align 4,,15
	.globl	f64_ge
	.type	f64_ge, @function
f64_ge:
.LFB180:
	.cfi_startproc
	movapd	%xmm0, %xmm2
	pxor	%xmm3, %xmm3
	subsd	%xmm1, %xmm2
	ucomisd	%xmm2, %xmm3
	jbe	.L174
	xorpd	.LC31(%rip), %xmm2
.L174:
	movl	$1, %eax
	movsd	.LC32(%rip), %xmm3
	ucomisd	%xmm2, %xmm3
	jnb	.L173
	xorl	%eax, %eax
	ucomisd	%xmm0, %xmm1
	setbe	%al
.L173:
	rep ret
	.cfi_endproc
.LFE180:
	.size	f64_ge, .-f64_ge
	.section	.text.f32_ge,"ax",@progbits
	.p2align 4,,15
	.globl	f32_ge
	.type	f32_ge, @function
f32_ge:
.LFB181:
	.cfi_startproc
	movaps	%xmm0, %xmm2
	pxor	%xmm3, %xmm3
	subss	%xmm1, %xmm2
	ucomiss	%xmm2, %xmm3
	jbe	.L180
	xorps	.LC29(%rip), %xmm2
.L180:
	movss	.LC33(%rip), %xmm3
	movl	$1, %eax
	ucomiss	%xmm2, %xmm3
	jnb	.L179
	xorl	%eax, %eax
	ucomiss	%xmm0, %xmm1
	setbe	%al
.L179:
	rep ret
	.cfi_endproc
.LFE181:
	.size	f32_ge, .-f32_ge
	.section	.text.f64_gebit,"ax",@progbits
	.p2align 4,,15
	.globl	f64_gebit
	.type	f64_gebit, @function
f64_gebit:
.LFB182:
	.cfi_startproc
	xorl	%eax, %eax
	ucomisd	%xmm1, %xmm0
	setnb	%al
	ret
	.cfi_endproc
.LFE182:
	.size	f64_gebit, .-f64_gebit
	.section	.text.f32_gebit,"ax",@progbits
	.p2align 4,,15
	.globl	f32_gebit
	.type	f32_gebit, @function
f32_gebit:
.LFB183:
	.cfi_startproc
	xorl	%eax, %eax
	ucomiss	%xmm1, %xmm0
	setnb	%al
	ret
	.cfi_endproc
.LFE183:
	.size	f32_gebit, .-f32_gebit
	.section	.rodata.str1.1
.LC34:
	.string	"true"
.LC35:
	.string	"false"
	.section	.text.bool_str,"ax",@progbits
	.p2align 4,,15
	.globl	bool_str
	.type	bool_str, @function
bool_str:
.LFB193:
	.cfi_startproc
	cmpl	$1, %edi
	leaq	.LC35(%rip), %rcx
	leaq	.LC34(%rip), %rax
	sbbl	%edx, %edx
	testl	%edi, %edi
	notl	%edx
	cmove	%rcx, %rax
	addl	$5, %edx
	ret
	.cfi_endproc
.LFE193:
	.size	bool_str, .-bool_str
	.section	.text.array_byte_contains,"ax",@progbits
	.p2align 4,,15
	.globl	array_byte_contains
	.type	array_byte_contains, @function
array_byte_contains:
.LFB202:
	.cfi_startproc
	movl	16(%rsp), %edx
	movl	%edi, %ecx
	movq	8(%rsp), %rax
	testl	%edx, %edx
	jle	.L194
	cmpb	(%rax), %dil
	je	.L196
	addq	$1, %rax
	subl	$1, %edx
	addq	%rax, %rdx
	jmp	.L192
	.p2align 4,,10
	.p2align 3
.L193:
	addq	$1, %rax
	cmpb	%cl, -1(%rax)
	je	.L196
.L192:
	cmpq	%rdx, %rax
	jne	.L193
.L194:
	xorl	%eax, %eax
	ret
	.p2align 4,,10
	.p2align 3
.L196:
	movl	$1, %eax
	ret
	.cfi_endproc
.LFE202:
	.size	array_byte_contains, .-array_byte_contains
	.section	.text.byte_is_capital,"ax",@progbits
	.p2align 4,,15
	.globl	byte_is_capital
	.type	byte_is_capital, @function
byte_is_capital:
.LFB205:
	.cfi_startproc
	subl	$65, %edi
	xorl	%eax, %eax
	cmpb	$25, %dil
	setbe	%al
	ret
	.cfi_endproc
.LFE205:
	.size	byte_is_capital, .-byte_is_capital
	.section	.text.DenseArray_push,"ax",@progbits
	.p2align 4,,15
	.globl	DenseArray_push
	.type	DenseArray_push, @function
DenseArray_push:
.LFB208:
	.cfi_startproc
	pushq	%rbx
	.cfi_def_cfa_offset 16
	.cfi_offset 3, -16
	movq	%rdi, %rbx
	movl	4(%rdi), %eax
	cmpl	%eax, (%rbx)
	movq	16(%rdi), %rdi
	je	.L201
.L199:
	movl	%eax, %edx
	movq	32(%rsp), %rcx
	leaq	(%rdx,%rdx,2), %rdx
	movdqu	16(%rsp), %xmm0
	leaq	(%rdi,%rdx,8), %rdx
	movups	%xmm0, (%rdx)
	movq	%rcx, 16(%rdx)
	leal	1(%rax), %edx
	movl	%edx, 4(%rbx)
	popq	%rbx
	.cfi_remember_state
	.cfi_def_cfa_offset 8
	ret
	.p2align 4,,10
	.p2align 3
.L201:
	.cfi_restore_state
	movl	%eax, %edx
	shrl	$3, %edx
	addl	%edx, %eax
	leaq	(%rax,%rax,2), %rsi
	movl	%eax, (%rbx)
	salq	$3, %rsi
	call	realloc@PLT
	movq	%rax, %rdi
	movq	%rax, 16(%rbx)
	movl	4(%rbx), %eax
	jmp	.L199
	.cfi_endproc
.LFE208:
	.size	DenseArray_push, .-DenseArray_push
	.section	.text.DenseArray_zeros_to_end,"ax",@progbits
	.p2align 4,,15
	.globl	DenseArray_zeros_to_end
	.type	DenseArray_zeros_to_end, @function
DenseArray_zeros_to_end:
.LFB209:
	.cfi_startproc
	pushq	%rbx
	.cfi_def_cfa_offset 16
	.cfi_offset 3, -16
	movl	4(%rdi), %ecx
	movq	%rdi, %rbx
	movq	16(%rdi), %rdi
	testl	%ecx, %ecx
	je	.L206
	leal	-1(%rcx), %edx
	movq	%rdi, %rax
	xorl	%ecx, %ecx
	leaq	(%rdx,%rdx,2), %rdx
	leaq	24(%rdi,%rdx,8), %r11
	.p2align 4,,10
	.p2align 3
.L205:
	cmpq	$0, (%rax)
	je	.L204
	movl	%ecx, %edx
	movdqu	(%rax), %xmm0
	leaq	(%rdx,%rdx,2), %rdx
	addl	$1, %ecx
	leaq	(%rdi,%rdx,8), %rdx
	movq	(%rdx), %r9
	movl	8(%rdx), %r8d
	movq	16(%rdx), %rsi
	movups	%xmm0, (%rdx)
	movq	16(%rax), %r10
	movq	%r10, 16(%rdx)
	movq	%r9, (%rax)
	movl	%r8d, 8(%rax)
	movq	%rsi, 16(%rax)
.L204:
	addq	$24, %rax
	cmpq	%rax, %r11
	jne	.L205
	cmpl	$8, %ecx
	movl	$8, %eax
	cmovnb	%ecx, %eax
	movl	%eax, %edx
	leaq	(%rdx,%rdx,2), %rsi
	salq	$3, %rsi
.L203:
	movl	$0, 8(%rbx)
	movl	%ecx, 4(%rbx)
	movl	%eax, (%rbx)
	call	realloc@PLT
	movq	%rax, 16(%rbx)
	popq	%rbx
	.cfi_remember_state
	.cfi_def_cfa_offset 8
	ret
	.p2align 4,,10
	.p2align 3
.L206:
	.cfi_restore_state
	movl	$192, %esi
	movl	$8, %eax
	jmp	.L203
	.cfi_endproc
.LFE209:
	.size	DenseArray_zeros_to_end, .-DenseArray_zeros_to_end
	.section	.text.map_key_to_index,"ax",@progbits
	.p2align 4,,15
	.globl	map_key_to_index
	.type	map_key_to_index, @function
map_key_to_index:
.LFB212:
	.cfi_startproc
	subq	$8, %rsp
	.cfi_def_cfa_offset 16
	xorl	%edx, %edx
	movslq	%esi, %rsi
	call	wyhash
	movzbl	25(%rsp), %ecx
	movq	%rax, %rdx
	andl	20(%rsp), %eax
	shrq	%cl, %rdx
	andl	_const_hash_mask(%rip), %edx
	orl	_const_probe_inc(%rip), %edx
	addq	$8, %rsp
	.cfi_def_cfa_offset 8
	salq	$32, %rdx
	orq	%rdx, %rax
	ret
	.cfi_endproc
.LFE212:
	.size	map_key_to_index, .-map_key_to_index
	.section	.text.map_meta_less,"ax",@progbits
	.p2align 4,,15
	.globl	map_meta_less
	.type	map_meta_less, @function
map_meta_less:
.LFB213:
	.cfi_startproc
	movq	48(%rsp), %rdx
	movl	%edi, %eax
	cmpl	(%rdx,%rax,4), %esi
	jnb	.L212
	movl	_const_probe_inc(%rip), %ecx
	.p2align 4,,10
	.p2align 3
.L213:
	leal	2(%rdi), %eax
	addl	%ecx, %esi
	cmpl	%esi, (%rdx,%rax,4)
	movq	%rax, %rdi
	ja	.L213
.L212:
	salq	$32, %rsi
	orq	%rsi, %rax
	ret
	.cfi_endproc
.LFE213:
	.size	map_meta_less, .-map_meta_less
	.section	.text.map_exists,"ax",@progbits
	.p2align 4,,15
	.globl	map_exists
	.type	map_exists, @function
map_exists:
.LFB220:
	.cfi_startproc
	pushq	%r15
	.cfi_def_cfa_offset 16
	.cfi_offset 15, -16
	pushq	%r14
	.cfi_def_cfa_offset 24
	.cfi_offset 14, -24
	xorl	%eax, %eax
	pushq	%r13
	.cfi_def_cfa_offset 32
	.cfi_offset 13, -32
	pushq	%r12
	.cfi_def_cfa_offset 40
	.cfi_offset 12, -40
	pushq	%rbp
	.cfi_def_cfa_offset 48
	.cfi_offset 6, -48
	pushq	%rbx
	.cfi_def_cfa_offset 56
	.cfi_offset 3, -56
	subq	$8, %rsp
	.cfi_def_cfa_offset 64
	movl	64(%rsp), %edx
	testl	%edx, %edx
	jne	.L227
	addq	$8, %rsp
	.cfi_remember_state
	.cfi_def_cfa_offset 56
	popq	%rbx
	.cfi_def_cfa_offset 48
	popq	%rbp
	.cfi_def_cfa_offset 40
	popq	%r12
	.cfi_def_cfa_offset 32
	popq	%r13
	.cfi_def_cfa_offset 24
	popq	%r14
	.cfi_def_cfa_offset 16
	popq	%r15
	.cfi_def_cfa_offset 8
	ret
	.p2align 4,,10
	.p2align 3
.L227:
	.cfi_restore_state
	xorl	%edx, %edx
	movslq	%esi, %rsi
	movq	%rdi, %r14
	call	wyhash
	movzbl	73(%rsp), %ecx
	movl	%eax, %edx
	andl	68(%rsp), %edx
	movq	104(%rsp), %r12
	movl	_const_probe_inc(%rip), %r13d
	shrq	%cl, %rax
	andl	_const_hash_mask(%rip), %eax
	movl	%edx, %ebx
	orl	%r13d, %eax
	cmpl	(%r12,%rdx,4), %eax
	movl	%eax, %ebp
	jnb	.L217
	.p2align 4,,10
	.p2align 3
.L218:
	leal	2(%rbx), %eax
	addl	%r13d, %ebp
	movq	%rax, %rbx
	movl	(%r12,%rax,4), %eax
	cmpl	%eax, %ebp
	jb	.L218
.L219:
	cmpl	%eax, %ebp
	jne	.L222
	movq	96(%rsp), %r15
	jmp	.L220
	.p2align 4,,10
	.p2align 3
.L228:
	leal	2(%rbx), %edx
	leal	0(%r13,%rbp), %eax
	movl	(%r12,%rdx,4), %ebp
	movq	%rdx, %rbx
	cmpl	%eax, %ebp
	jne	.L222
.L220:
	leal	1(%rbx), %eax
	movq	%r14, %rdi
	movl	(%r12,%rax,4), %eax
	leaq	(%rax,%rax,2), %rax
	movq	(%r15,%rax,8), %rsi
	call	strcmp@PLT
	testl	%eax, %eax
	jne	.L228
	addq	$8, %rsp
	.cfi_remember_state
	.cfi_def_cfa_offset 56
	movl	$1, %eax
	popq	%rbx
	.cfi_def_cfa_offset 48
	popq	%rbp
	.cfi_def_cfa_offset 40
	popq	%r12
	.cfi_def_cfa_offset 32
	popq	%r13
	.cfi_def_cfa_offset 24
	popq	%r14
	.cfi_def_cfa_offset 16
	popq	%r15
	.cfi_def_cfa_offset 8
	ret
	.p2align 4,,10
	.p2align 3
.L222:
	.cfi_restore_state
	addq	$8, %rsp
	.cfi_remember_state
	.cfi_def_cfa_offset 56
	xorl	%eax, %eax
	popq	%rbx
	.cfi_def_cfa_offset 48
	popq	%rbp
	.cfi_def_cfa_offset 40
	popq	%r12
	.cfi_def_cfa_offset 32
	popq	%r13
	.cfi_def_cfa_offset 24
	popq	%r14
	.cfi_def_cfa_offset 16
	popq	%r15
	.cfi_def_cfa_offset 8
	ret
	.p2align 4,,10
	.p2align 3
.L217:
	.cfi_restore_state
	movl	(%r12,%rdx,4), %eax
	jmp	.L219
	.cfi_endproc
.LFE220:
	.size	map_exists, .-map_exists
	.section	.text.map_free,"ax",@progbits
	.p2align 4,,15
	.globl	map_free
	.type	map_free, @function
map_free:
.LFB223:
	.cfi_startproc
	pushq	%r12
	.cfi_def_cfa_offset 16
	.cfi_offset 12, -16
	pushq	%rbp
	.cfi_def_cfa_offset 24
	.cfi_offset 6, -24
	pushq	%rbx
	.cfi_def_cfa_offset 32
	.cfi_offset 3, -32
	movl	52(%rsp), %ebp
	movq	72(%rsp), %rdi
	movq	64(%rsp), %r12
	call	free@PLT
	testl	%ebp, %ebp
	je	.L230
	leal	-1(%rbp), %eax
	movq	%r12, %rbx
	leaq	(%rax,%rax,2), %rax
	leaq	24(%r12,%rax,8), %rbp
	.p2align 4,,10
	.p2align 3
.L232:
	movq	(%rbx), %rdi
	testq	%rdi, %rdi
	je	.L231
	call	free@PLT
.L231:
	addq	$24, %rbx
	cmpq	%rbp, %rbx
	jne	.L232
.L230:
	popq	%rbx
	.cfi_def_cfa_offset 24
	movq	%r12, %rdi
	popq	%rbp
	.cfi_def_cfa_offset 16
	popq	%r12
	.cfi_def_cfa_offset 8
	jmp	free@PLT
	.cfi_endproc
.LFE223:
	.size	map_free, .-map_free
	.section	.rodata.str1.1
.LC36:
	.string	"TODO"
	.section	.text.map_print,"ax",@progbits
	.p2align 4,,15
	.globl	map_print
	.type	map_print, @function
map_print:
.LFB224:
	.cfi_startproc
	leaq	.LC36(%rip), %rcx
	leaq	.LC26(%rip), %rsi
	movl	$4, %edx
	movl	$1, %edi
	xorl	%eax, %eax
	jmp	__printf_chk@PLT
	.cfi_endproc
.LFE224:
	.size	map_print, .-map_print
	.section	.rodata.str1.1
.LC37:
	.string	""
	.section	.text.opt_none,"ax",@progbits
	.p2align 4,,15
	.globl	opt_none
	.type	opt_none, @function
opt_none:
.LFB227:
	.cfi_startproc
	xorl	%eax, %eax
	movl	$54, %ecx
	movq	%rdi, %rdx
	rep stosq
	leaq	.LC37(%rip), %rax
	movl	$1, 424(%rdx)
	movq	%rax, 400(%rdx)
	movq	%rdx, %rax
	ret
	.cfi_endproc
.LFE227:
	.size	opt_none, .-opt_none
	.section	.text.v_error,"ax",@progbits
	.p2align 4,,15
	.globl	v_error
	.type	v_error, @function
v_error:
.LFB228:
	.cfi_startproc
	movq	%rdi, %r8
	xorl	%eax, %eax
	movl	$54, %ecx
	rep stosq
	movq	%rsi, 400(%r8)
	movq	%rdx, 408(%r8)
	movq	%r8, %rax
	ret
	.cfi_endproc
.LFE228:
	.size	v_error, .-v_error
	.section	.text.error_with_code,"ax",@progbits
	.p2align 4,,15
	.globl	error_with_code
	.type	error_with_code, @function
error_with_code:
.LFB229:
	.cfi_startproc
	movq	%rdi, %r8
	movl	%ecx, %r9d
	xorl	%eax, %eax
	movl	$54, %ecx
	rep stosq
	movq	%rsi, 400(%r8)
	movq	%rdx, 408(%r8)
	movq	%r8, %rax
	movl	%r9d, 416(%r8)
	ret
	.cfi_endproc
.LFE229:
	.size	error_with_code, .-error_with_code
	.section	.text.mapnode_remove_from_leaf,"ax",@progbits
	.p2align 4,,15
	.globl	mapnode_remove_from_leaf
	.type	mapnode_remove_from_leaf, @function
mapnode_remove_from_leaf:
.LFB239:
	.cfi_startproc
	pushq	%r13
	.cfi_def_cfa_offset 16
	.cfi_offset 13, -16
	pushq	%r12
	.cfi_def_cfa_offset 24
	.cfi_offset 12, -24
	leal	1(%rsi), %eax
	pushq	%rbp
	.cfi_def_cfa_offset 32
	.cfi_offset 6, -32
	pushq	%rbx
	.cfi_def_cfa_offset 40
	.cfi_offset 3, -40
	movq	%rdi, %rbp
	subq	$8, %rsp
	.cfi_def_cfa_offset 48
	movl	272(%rdi), %r13d
	cmpl	%r13d, %eax
	jge	.L246
	movl	%r13d, %eax
	movslq	%esi, %rbx
	subl	%esi, %eax
	movq	%rbx, %rdi
	salq	$3, %rbx
	leal	-2(%rax), %r12d
	salq	$4, %rdi
	leaq	16(%rbp,%rdi), %rsi
	addq	%rbp, %rdi
	addq	$1, %r12
	movq	%r12, %rdx
	salq	$4, %rdx
	call	memmove@PLT
	leaq	0(,%r12,8), %rdx
	leaq	184(%rbp,%rbx), %rsi
	leaq	176(%rbp,%rbx), %rdi
	call	memmove@PLT
.L246:
	subl	$1, %r13d
	movl	%r13d, 272(%rbp)
	addq	$8, %rsp
	.cfi_def_cfa_offset 40
	popq	%rbx
	.cfi_def_cfa_offset 32
	popq	%rbp
	.cfi_def_cfa_offset 24
	popq	%r12
	.cfi_def_cfa_offset 16
	popq	%r13
	.cfi_def_cfa_offset 8
	ret
	.cfi_endproc
.LFE239:
	.size	mapnode_remove_from_leaf, .-mapnode_remove_from_leaf
	.section	.text.mapnode_borrow_from_prev,"ax",@progbits
	.p2align 4,,15
	.globl	mapnode_borrow_from_prev
	.type	mapnode_borrow_from_prev, @function
mapnode_borrow_from_prev:
.LFB242:
	.cfi_startproc
	pushq	%r15
	.cfi_def_cfa_offset 16
	.cfi_offset 15, -16
	pushq	%r14
	.cfi_def_cfa_offset 24
	.cfi_offset 14, -24
	movslq	%esi, %rdx
	pushq	%r13
	.cfi_def_cfa_offset 32
	.cfi_offset 13, -32
	pushq	%r12
	.cfi_def_cfa_offset 40
	.cfi_offset 12, -40
	leaq	0(,%rdx,8), %r15
	pushq	%rbp
	.cfi_def_cfa_offset 48
	.cfi_offset 6, -48
	pushq	%rbx
	.cfi_def_cfa_offset 56
	.cfi_offset 3, -56
	movq	%rdi, %rcx
	movq	%rdx, %r12
	subq	$24, %rsp
	.cfi_def_cfa_offset 80
	movq	264(%rdi), %rax
	movq	(%rax,%rdx,8), %rbx
	movq	-8(%rax,%r15), %r14
	movl	272(%rbx), %r13d
	testl	%r13d, %r13d
	jle	.L249
	movslq	%r13d, %rbp
	leal	-1(%r13), %r8d
	movq	%rdi, 8(%rsp)
	movq	%rbp, %rax
	salq	$3, %rbp
	salq	$4, %rax
	addq	$1, %r8
	leaq	16(%rax), %rdi
	movq	%r8, %rdx
	movq	%rax, %rsi
	salq	$4, %rdx
	movq	%r8, (%rsp)
	movq	%rdi, %rax
	subq	%rdx, %rsi
	subq	%rdx, %rax
	addq	%rbx, %rsi
	leaq	(%rbx,%rax), %rdi
	call	memmove@PLT
	movq	(%rsp), %r8
	leaq	176(%rbp), %rsi
	addq	$184, %rbp
	leaq	0(,%r8,8), %rdx
	subq	%rdx, %rbp
	subq	%rdx, %rsi
	leaq	(%rbx,%rbp), %rdi
	addq	%rbx, %rsi
	call	memmove@PLT
	movq	8(%rsp), %rcx
.L249:
	movq	264(%rbx), %rdx
	testq	%rdx, %rdx
	je	.L250
	testl	%r13d, %r13d
	js	.L251
	movslq	%r13d, %rax
	salq	$3, %rax
	jmp	.L255
	.p2align 4,,10
	.p2align 3
.L252:
	subq	$8, %rax
.L255:
	movq	(%rdx,%rax), %rsi
	testq	%rax, %rax
	movq	%rsi, 8(%rdx,%rax)
	movq	264(%rbx), %rdx
	jne	.L252
	subl	$1, %r12d
	addq	%rcx, %r15
	movslq	%r12d, %r12
	movq	%r12, %rax
	salq	$4, %rax
	testq	%rdx, %rdx
	movdqu	(%rcx,%rax), %xmm0
	movups	%xmm0, (%rbx)
	movq	168(%r15), %rax
	movq	%rax, 176(%rbx)
	movl	272(%r14), %eax
	je	.L254
.L253:
	movq	264(%r14), %rdi
	movslq	%eax, %rsi
	movq	(%rdi,%rsi,8), %rsi
	movq	%rsi, (%rdx)
.L254:
	subl	$1, %eax
	salq	$4, %r12
	addl	$1, %r13d
	cltq
	movq	%rax, %rdx
	movq	176(%r14,%rax,8), %rax
	salq	$4, %rdx
	movdqu	(%r14,%rdx), %xmm0
	movups	%xmm0, (%rcx,%r12)
	movq	%rax, 168(%r15)
	movl	%r13d, 272(%rbx)
	subl	$1, 272(%r14)
	addq	$24, %rsp
	.cfi_remember_state
	.cfi_def_cfa_offset 56
	popq	%rbx
	.cfi_def_cfa_offset 48
	popq	%rbp
	.cfi_def_cfa_offset 40
	popq	%r12
	.cfi_def_cfa_offset 32
	popq	%r13
	.cfi_def_cfa_offset 24
	popq	%r14
	.cfi_def_cfa_offset 16
	popq	%r15
	.cfi_def_cfa_offset 8
	ret
	.p2align 4,,10
	.p2align 3
.L250:
	.cfi_restore_state
	subl	$1, %r12d
	addq	%rcx, %r15
	movslq	%r12d, %r12
	movq	%r12, %rax
	salq	$4, %rax
	movdqu	(%rcx,%rax), %xmm0
	movups	%xmm0, (%rbx)
	movq	168(%r15), %rax
	movq	%rax, 176(%rbx)
	movl	272(%r14), %eax
	jmp	.L254
	.p2align 4,,10
	.p2align 3
.L251:
	subl	$1, %r12d
	addq	%rcx, %r15
	movslq	%r12d, %r12
	movq	%r12, %rax
	salq	$4, %rax
	movdqu	(%rcx,%rax), %xmm0
	movups	%xmm0, (%rbx)
	movq	168(%r15), %rax
	movq	%rax, 176(%rbx)
	movl	272(%r14), %eax
	jmp	.L253
	.cfi_endproc
.LFE242:
	.size	mapnode_borrow_from_prev, .-mapnode_borrow_from_prev
	.section	.text.mapnode_borrow_from_next,"ax",@progbits
	.p2align 4,,15
	.globl	mapnode_borrow_from_next
	.type	mapnode_borrow_from_next, @function
mapnode_borrow_from_next:
.LFB243:
	.cfi_startproc
	pushq	%r15
	.cfi_def_cfa_offset 16
	.cfi_offset 15, -16
	pushq	%r14
	.cfi_def_cfa_offset 24
	.cfi_offset 14, -24
	movslq	%esi, %rsi
	pushq	%r13
	.cfi_def_cfa_offset 32
	.cfi_offset 13, -32
	pushq	%r12
	.cfi_def_cfa_offset 40
	.cfi_offset 12, -40
	leaq	0(,%rsi,8), %rax
	pushq	%rbp
	.cfi_def_cfa_offset 48
	.cfi_offset 6, -48
	pushq	%rbx
	.cfi_def_cfa_offset 56
	.cfi_offset 3, -56
	movq	%rsi, %r8
	salq	$4, %r8
	subq	$8, %rsp
	.cfi_def_cfa_offset 64
	movq	264(%rdi), %rdx
	movdqu	(%rdi,%r8), %xmm0
	movq	(%rdx,%rsi,8), %rbp
	movq	8(%rdx,%rax), %rbx
	addq	%rdi, %rax
	movslq	272(%rbp), %rdx
	movq	264(%rbx), %r15
	movq	%rdx, %rcx
	movq	%rdx, %r14
	salq	$4, %rcx
	movups	%xmm0, 0(%rbp,%rcx)
	movq	176(%rax), %rcx
	movq	%rcx, 176(%rbp,%rdx,8)
	movq	264(%rbp), %rcx
	testq	%rcx, %rcx
	je	.L259
	movq	(%r15), %r8
	movq	%r8, 8(%rcx,%rdx,8)
	movq	264(%rbx), %r15
.L259:
	movq	176(%rbx), %rdx
	salq	$4, %rsi
	movdqu	(%rbx), %xmm0
	movups	%xmm0, (%rdi,%rsi)
	movq	%rdx, 176(%rax)
	movl	272(%rbx), %r13d
	cmpl	$1, %r13d
	jle	.L260
	leal	-2(%r13), %r12d
	leaq	16(%rbx), %rsi
	movq	%rbx, %rdi
	addq	$1, %r12
	movq	%r12, %rdx
	salq	$4, %rdx
	call	memmove@PLT
	leaq	0(,%r12,8), %rdx
	leaq	184(%rbx), %rsi
	leaq	176(%rbx), %rdi
	call	memmove@PLT
	testq	%r15, %r15
	je	.L262
	movq	8(%r15), %rax
	cmpl	$2, %r13d
	movq	%rax, (%r15)
	movq	264(%rbx), %rax
	movq	16(%rax), %rdx
	movq	%rdx, 8(%rax)
	je	.L262
	movq	264(%rbx), %rax
	cmpl	$3, %r13d
	movq	24(%rax), %rdx
	movq	%rdx, 16(%rax)
	je	.L262
	movq	264(%rbx), %rax
	cmpl	$4, %r13d
	movq	32(%rax), %rdx
	movq	%rdx, 24(%rax)
	je	.L262
	movq	264(%rbx), %rax
	cmpl	$5, %r13d
	movq	40(%rax), %rdx
	movq	%rdx, 32(%rax)
	je	.L262
	movq	264(%rbx), %rax
	cmpl	$6, %r13d
	movq	48(%rax), %rdx
	movq	%rdx, 40(%rax)
	je	.L262
	movq	264(%rbx), %rax
	cmpl	$7, %r13d
	movq	56(%rax), %rdx
	movq	%rdx, 48(%rax)
	je	.L262
	movq	264(%rbx), %rax
	cmpl	$8, %r13d
	movq	64(%rax), %rdx
	movq	%rdx, 56(%rax)
	je	.L262
	movq	264(%rbx), %rax
	cmpl	$9, %r13d
	movq	72(%rax), %rdx
	movq	%rdx, 64(%rax)
	je	.L262
	movq	264(%rbx), %rax
	cmpl	$10, %r13d
	movq	80(%rax), %rdx
	movq	%rdx, 72(%rax)
	je	.L262
	movq	264(%rbx), %rax
	cmpl	$11, %r13d
	movq	88(%rax), %rdx
	movq	%rdx, 80(%rax)
	je	.L262
	movq	264(%rbx), %rax
	movq	96(%rax), %rdx
	movq	%rdx, 88(%rax)
.L262:
	addl	$1, %r14d
	movl	%r14d, 272(%rbp)
	subl	$1, 272(%rbx)
	addq	$8, %rsp
	.cfi_remember_state
	.cfi_def_cfa_offset 56
	popq	%rbx
	.cfi_def_cfa_offset 48
	popq	%rbp
	.cfi_def_cfa_offset 40
	popq	%r12
	.cfi_def_cfa_offset 32
	popq	%r13
	.cfi_def_cfa_offset 24
	popq	%r14
	.cfi_def_cfa_offset 16
	popq	%r15
	.cfi_def_cfa_offset 8
	ret
	.p2align 4,,10
	.p2align 3
.L260:
	.cfi_restore_state
	testq	%r15, %r15
	je	.L262
	cmpl	$1, %r13d
	jne	.L262
	movq	8(%r15), %rax
	movq	%rax, (%r15)
	jmp	.L262
	.cfi_endproc
.LFE243:
	.size	mapnode_borrow_from_next, .-mapnode_borrow_from_next
	.section	.text.mapnode_merge,"ax",@progbits
	.p2align 4,,15
	.globl	mapnode_merge
	.type	mapnode_merge, @function
mapnode_merge:
.LFB244:
	.cfi_startproc
	pushq	%r15
	.cfi_def_cfa_offset 16
	.cfi_offset 15, -16
	pushq	%r14
	.cfi_def_cfa_offset 24
	.cfi_offset 14, -24
	pushq	%r13
	.cfi_def_cfa_offset 32
	.cfi_offset 13, -32
	pushq	%r12
	.cfi_def_cfa_offset 40
	.cfi_offset 12, -40
	pushq	%rbp
	.cfi_def_cfa_offset 48
	.cfi_offset 6, -48
	pushq	%rbx
	.cfi_def_cfa_offset 56
	.cfi_offset 3, -56
	movq	%rdi, %rbp
	movslq	%esi, %rdi
	subq	$24, %rsp
	.cfi_def_cfa_offset 80
	movq	264(%rbp), %rax
	movslq	_const_mid_index(%rip), %rdx
	leaq	0(,%rdi,8), %rbx
	movq	%rdi, %r8
	movq	%rdi, %rcx
	salq	$4, %r8
	movq	(%rax,%rdi,8), %r12
	movq	8(%rax,%rbx), %rax
	movq	%rdx, %rsi
	movdqu	0(%rbp,%r8), %xmm0
	salq	$4, %rsi
	movl	272(%rax), %r13d
	movups	%xmm0, (%r12,%rsi)
	movq	176(%rbp,%rdi,8), %rsi
	testl	%r13d, %r13d
	movq	%rsi, 176(%r12,%rdx,8)
	movq	264(%r12), %rdx
	jle	.L301
	movdqu	(%rax), %xmm0
	cmpl	$1, %r13d
	movups	%xmm0, 96(%r12)
	movq	176(%rax), %rsi
	movq	%rsi, 224(%r12)
	je	.L303
	movdqu	16(%rax), %xmm0
	cmpl	$2, %r13d
	movups	%xmm0, 112(%r12)
	movq	184(%rax), %rsi
	movq	%rsi, 232(%r12)
	je	.L303
	movdqu	32(%rax), %xmm0
	cmpl	$3, %r13d
	movups	%xmm0, 128(%r12)
	movq	192(%rax), %rsi
	movq	%rsi, 240(%r12)
	je	.L303
	movdqu	48(%rax), %xmm0
	cmpl	$4, %r13d
	movups	%xmm0, 144(%r12)
	movq	200(%rax), %rsi
	movq	%rsi, 248(%r12)
	je	.L303
	movdqu	64(%rax), %xmm0
	movups	%xmm0, 160(%r12)
	movq	208(%rax), %rsi
	movq	%rsi, 256(%r12)
.L303:
	testq	%rdx, %rdx
	je	.L304
	movq	264(%rax), %rsi
	cmpl	$1, %r13d
	movq	(%rsi), %rsi
	movq	%rsi, 48(%rdx)
	movq	264(%rax), %rsi
	movq	264(%r12), %rdx
	movq	8(%rsi), %rsi
	movq	%rsi, 56(%rdx)
	jle	.L304
	movq	264(%rax), %rsi
	movq	264(%r12), %rdx
	cmpl	$2, %r13d
	movq	16(%rsi), %rsi
	movq	%rsi, 64(%rdx)
	je	.L304
	movq	264(%rax), %rsi
	movq	264(%r12), %rdx
	cmpl	$3, %r13d
	movq	24(%rsi), %rsi
	movq	%rsi, 72(%rdx)
	je	.L304
	movq	264(%rax), %rsi
	movq	264(%r12), %rdx
	cmpl	$4, %r13d
	movq	32(%rsi), %rsi
	movq	%rsi, 80(%rdx)
	je	.L304
	movq	264(%rax), %rsi
	movq	264(%r12), %rdx
	cmpl	$5, %r13d
	movq	40(%rsi), %rsi
	movq	%rsi, 88(%rdx)
	je	.L304
	movq	264(%rax), %rax
	movq	264(%r12), %rdx
	movq	48(%rax), %rax
	movq	%rax, 96(%rdx)
.L304:
	movl	272(%rbp), %r14d
	leal	1(%rcx), %eax
	cmpl	%r14d, %eax
	jge	.L306
	movl	%r14d, %eax
	salq	$4, %rdi
	movl	%ecx, 12(%rsp)
	subl	%ecx, %eax
	leaq	16(%rbp,%rdi), %rsi
	addq	%rbp, %rdi
	leal	-2(%rax), %r15d
	addq	$1, %r15
	movq	%r15, %rdx
	salq	$4, %rdx
	call	memmove@PLT
	leaq	0(,%r15,8), %rdx
	leaq	184(%rbp,%rbx), %rsi
	leaq	176(%rbp,%rbx), %rdi
	call	memmove@PLT
	movl	12(%rsp), %ecx
.L306:
	leal	2(%rcx), %edx
	cmpl	%r14d, %edx
	jg	.L307
	subl	%ecx, %r14d
	movslq	%edx, %rdx
	leaq	16(%rbx), %rax
	leal	-2(%r14), %ecx
	leaq	1(%rcx,%rdx), %rsi
	salq	$3, %rsi
	.p2align 4,,10
	.p2align 3
.L308:
	movq	264(%rbp), %rdx
	movq	(%rdx,%rax), %rcx
	movq	%rcx, -8(%rdx,%rax)
	addq	$8, %rax
	cmpq	%rsi, %rax
	jne	.L308
.L307:
	addl	$1, %r13d
	addl	%r13d, 272(%r12)
	subl	$1, 272(%rbp)
	addq	$24, %rsp
	.cfi_remember_state
	.cfi_def_cfa_offset 56
	popq	%rbx
	.cfi_def_cfa_offset 48
	popq	%rbp
	.cfi_def_cfa_offset 40
	popq	%r12
	.cfi_def_cfa_offset 32
	popq	%r13
	.cfi_def_cfa_offset 24
	popq	%r14
	.cfi_def_cfa_offset 16
	popq	%r15
	.cfi_def_cfa_offset 8
	ret
	.p2align 4,,10
	.p2align 3
.L301:
	.cfi_restore_state
	testq	%rdx, %rdx
	je	.L304
	testl	%r13d, %r13d
	jne	.L304
	movq	264(%rax), %rax
	movq	(%rax), %rax
	movq	%rax, 48(%rdx)
	jmp	.L304
	.cfi_endproc
.LFE244:
	.size	mapnode_merge, .-mapnode_merge
	.section	.text.mapnode_fill,"ax",@progbits
	.p2align 4,,15
	.globl	mapnode_fill
	.type	mapnode_fill, @function
mapnode_fill:
.LFB241:
	.cfi_startproc
	testl	%esi, %esi
	je	.L340
	movq	264(%rdi), %rdx
	movslq	%esi, %rax
	movq	-8(%rdx,%rax,8), %rax
	cmpl	$5, 272(%rax)
	jg	.L347
.L340:
	cmpl	%esi, 272(%rdi)
	je	.L341
	movq	264(%rdi), %rdx
	movslq	%esi, %rax
	movq	8(%rdx,%rax,8), %rax
	cmpl	$5, 272(%rax)
	jg	.L348
	jmp	mapnode_merge
	.p2align 4,,10
	.p2align 3
.L341:
	subl	$1, %esi
	jmp	mapnode_merge
	.p2align 4,,10
	.p2align 3
.L348:
	jmp	mapnode_borrow_from_next
	.p2align 4,,10
	.p2align 3
.L347:
	jmp	mapnode_borrow_from_prev
	.cfi_endproc
.LFE241:
	.size	mapnode_fill, .-mapnode_fill
	.section	.text.mapnode_free,"ax",@progbits
	.p2align 4,,15
	.globl	mapnode_free
	.type	mapnode_free, @function
mapnode_free:
.LFB248:
	.cfi_startproc
	leaq	.LC36(%rip), %rcx
	leaq	.LC26(%rip), %rsi
	movl	$4, %edx
	movl	$1, %edi
	xorl	%eax, %eax
	jmp	__printf_chk@PLT
	.cfi_endproc
.LFE248:
	.size	mapnode_free, .-mapnode_free
	.section	.text.SortedMap_free,"ax",@progbits
	.p2align 4,,15
	.globl	SortedMap_free
	.type	SortedMap_free, @function
SortedMap_free:
.LFB249:
	.cfi_startproc
	cmpq	$0, 8(%rdi)
	je	.L350
	leaq	.LC36(%rip), %rcx
	leaq	.LC26(%rip), %rsi
	movl	$4, %edx
	movl	$1, %edi
	xorl	%eax, %eax
	jmp	__printf_chk@PLT
	.p2align 4,,10
	.p2align 3
.L350:
	rep ret
	.cfi_endproc
.LFE249:
	.size	SortedMap_free, .-SortedMap_free
	.section	.text.SortedMap_print,"ax",@progbits
	.p2align 4,,15
	.globl	SortedMap_print
	.type	SortedMap_print, @function
SortedMap_print:
.LFB250:
	.cfi_startproc
	leaq	.LC36(%rip), %rcx
	leaq	.LC26(%rip), %rsi
	movl	$4, %edx
	movl	$1, %edi
	xorl	%eax, %eax
	jmp	__printf_chk@PLT
	.cfi_endproc
.LFE250:
	.size	SortedMap_print, .-SortedMap_print
	.section	.text.vstrlen,"ax",@progbits
	.p2align 4,,15
	.globl	vstrlen
	.type	vstrlen, @function
vstrlen:
.LFB251:
	.cfi_startproc
	subq	$8, %rsp
	.cfi_def_cfa_offset 16
	call	strlen@PLT
	addq	$8, %rsp
	.cfi_def_cfa_offset 8
	ret
	.cfi_endproc
.LFE251:
	.size	vstrlen, .-vstrlen
	.section	.text.array_RepIndex_sort,"ax",@progbits
	.p2align 4,,15
	.globl	array_RepIndex_sort
	.type	array_RepIndex_sort, @function
array_RepIndex_sort:
.LFB261:
	.cfi_startproc
	movslq	16(%rdi), %rdx
	movslq	8(%rdi), %rsi
	leaq	compare_rep_index(%rip), %rcx
	movq	(%rdi), %rdi
	jmp	qsort@PLT
	.cfi_endproc
.LFE261:
	.size	array_RepIndex_sort, .-array_RepIndex_sort
	.section	.text.string_index_old,"ax",@progbits
	.p2align 4,,15
	.globl	string_index_old
	.type	string_index_old, @function
string_index_old:
.LFB287:
	.cfi_startproc
	testl	%ecx, %ecx
	movl	%ecx, %r10d
	movl	$-1, %eax
	je	.L363
	cmpl	%ecx, %esi
	jl	.L363
	testl	%esi, %esi
	jle	.L356
	leal	-1(%rsi), %eax
	leal	-1(%rcx), %r9d
	movq	%rdi, %r8
	leaq	1(%rdi,%rax), %r11
	addq	$1, %r9
	.p2align 4,,10
	.p2align 3
.L358:
	movl	%r8d, %eax
	subl	%edi, %eax
	testl	%r10d, %r10d
	jle	.L366
	movzbl	(%rdx), %esi
	movl	$1, %ecx
	cmpb	%sil, (%r8)
	je	.L360
	jmp	.L361
	.p2align 4,,10
	.p2align 3
.L368:
	movzbl	(%r8,%rcx), %esi
	addq	$1, %rcx
	cmpb	-1(%rdx,%rcx), %sil
	jne	.L361
.L360:
	cmpq	%rcx, %r9
	movl	%ecx, %esi
	jne	.L368
.L359:
	cmpl	%esi, %r10d
	je	.L356
.L361:
	addq	$1, %r8
	cmpq	%r11, %r8
	jne	.L358
	movl	$-1, %eax
.L356:
	rep ret
	.p2align 4,,10
	.p2align 3
.L366:
	xorl	%esi, %esi
	jmp	.L359
.L363:
	rep ret
	.cfi_endproc
.LFE287:
	.size	string_index_old, .-string_index_old
	.section	.text.string_index_after,"ax",@progbits
	.p2align 4,,15
	.globl	string_index_after
	.type	string_index_after, @function
string_index_after:
.LFB292:
	.cfi_startproc
	cmpl	%ecx, %esi
	movl	%esi, %r10d
	movl	%ecx, %r9d
	jl	.L379
	testl	%r8d, %r8d
	movl	$0, %eax
	cmovns	%r8d, %eax
	cmpl	%esi, %r8d
	jge	.L379
	cmpl	%esi, %eax
	jge	.L379
	leal	-1(%r9), %r8d
	movslq	%eax, %rcx
	addq	%rcx, %rdi
	addq	$1, %r8
	.p2align 4,,10
	.p2align 3
.L371:
	testl	%r9d, %r9d
	jle	.L380
	movzbl	(%rdi), %esi
	movl	$1, %ecx
	cmpb	%sil, (%rdx)
	je	.L373
	jmp	.L374
	.p2align 4,,10
	.p2align 3
.L382:
	movzbl	(%rdi,%rcx), %esi
	addq	$1, %rcx
	cmpb	-1(%rdx,%rcx), %sil
	jne	.L374
.L373:
	cmpq	%r8, %rcx
	movl	%ecx, %esi
	jne	.L382
.L372:
	cmpl	%esi, %r9d
	je	.L369
.L374:
	addl	$1, %eax
	addq	$1, %rdi
	cmpl	%eax, %r10d
	jne	.L371
.L379:
	movl	$-1, %eax
.L369:
	rep ret
	.p2align 4,,10
	.p2align 3
.L380:
	xorl	%esi, %esi
	jmp	.L372
	.cfi_endproc
.LFE292:
	.size	string_index_after, .-string_index_after
	.section	.text.string_index_byte,"ax",@progbits
	.p2align 4,,15
	.globl	string_index_byte
	.type	string_index_byte, @function
string_index_byte:
.LFB293:
	.cfi_startproc
	testl	%esi, %esi
	movl	%edx, %r8d
	movl	$-1, %eax
	jle	.L383
	cmpb	(%rdi), %dl
	je	.L388
	leal	-1(%rsi), %ecx
	movl	$1, %edx
	addq	$1, %rcx
	jmp	.L385
	.p2align 4,,10
	.p2align 3
.L386:
	addq	$1, %rdx
	cmpb	%r8b, -1(%rdi,%rdx)
	je	.L383
.L385:
	cmpq	%rcx, %rdx
	movl	%edx, %eax
	jne	.L386
	movl	$-1, %eax
	ret
	.p2align 4,,10
	.p2align 3
.L388:
	xorl	%eax, %eax
.L383:
	rep ret
	.cfi_endproc
.LFE293:
	.size	string_index_byte, .-string_index_byte
	.section	.text.string_last_index_byte,"ax",@progbits
	.p2align 4,,15
	.globl	string_last_index_byte
	.type	string_last_index_byte, @function
string_last_index_byte:
.LFB294:
	.cfi_startproc
	movl	%esi, %eax
	movl	%edx, %ecx
	subl	$1, %eax
	js	.L393
	movslq	%eax, %r8
	cmpb	(%rdi,%r8), %dl
	je	.L389
	subl	$2, %esi
	movl	%eax, %eax
	movslq	%esi, %rsi
	movq	%rsi, %rdx
	subq	%rax, %rdx
	jmp	.L391
	.p2align 4,,10
	.p2align 3
.L392:
	subq	$1, %rsi
	cmpb	%cl, 1(%rsi,%rdi)
	je	.L389
.L391:
	cmpq	%rdx, %rsi
	movl	%esi, %eax
	jne	.L392
.L393:
	movl	$-1, %eax
.L389:
	rep ret
	.cfi_endproc
.LFE294:
	.size	string_last_index_byte, .-string_last_index_byte
	.section	.text.string_count,"ax",@progbits
	.p2align 4,,15
	.globl	string_count
	.type	string_count, @function
string_count:
.LFB295:
	.cfi_startproc
	testl	%esi, %esi
	sete	%r8b
	testl	%ecx, %ecx
	sete	%al
	orb	%al, %r8b
	jne	.L405
	cmpl	%esi, %ecx
	jle	.L413
.L405:
	xorl	%eax, %eax
	ret
.L413:
	testl	%esi, %esi
	jle	.L405
	leal	-1(%rcx), %r9d
	pushq	%rbx
	.cfi_def_cfa_offset 16
	.cfi_offset 3, -16
	movl	%ecx, %r11d
	movl	%esi, %ebx
	xorl	%eax, %eax
	xorl	%r10d, %r10d
	addq	$1, %r9
	.p2align 4,,10
	.p2align 3
.L396:
	testl	%r11d, %r11d
	jle	.L406
.L416:
	movslq	%r10d, %r8
	movzbl	(%rdx), %esi
	movl	$1, %ecx
	addq	%rdi, %r8
	cmpb	%sil, (%r8)
	je	.L399
	jmp	.L401
	.p2align 4,,10
	.p2align 3
.L414:
	movzbl	(%r8,%rcx), %esi
	addq	$1, %rcx
	cmpb	-1(%rdx,%rcx), %sil
	jne	.L401
.L399:
	cmpq	%rcx, %r9
	movl	%ecx, %esi
	jne	.L414
.L398:
	cmpl	%esi, %r11d
	je	.L415
.L401:
	addl	$1, %r10d
	cmpl	%ebx, %r10d
	jl	.L396
.L394:
	popq	%rbx
	.cfi_remember_state
	.cfi_def_cfa_offset 8
	ret
	.p2align 4,,10
	.p2align 3
.L415:
	.cfi_restore_state
	addl	%r11d, %r10d
	addl	$1, %eax
	cmpl	%ebx, %r10d
	jge	.L394
	testl	%r11d, %r11d
	jg	.L416
	.p2align 4,,10
	.p2align 3
.L406:
	xorl	%esi, %esi
	jmp	.L398
	.cfi_endproc
.LFE295:
	.size	string_count, .-string_count
	.section	.text.string_starts_with,"ax",@progbits
	.p2align 4,,15
	.globl	string_starts_with
	.type	string_starts_with, @function
string_starts_with:
.LFB297:
	.cfi_startproc
	xorl	%eax, %eax
	cmpl	%esi, %ecx
	jg	.L417
	testl	%ecx, %ecx
	jle	.L422
	movzbl	(%rdx), %esi
	cmpb	%sil, (%rdi)
	jne	.L417
	leal	-1(%rcx), %esi
	movl	$1, %eax
	addq	$1, %rsi
	jmp	.L419
	.p2align 4,,10
	.p2align 3
.L420:
	movzbl	(%rdi,%rax), %ecx
	addq	$1, %rax
	cmpb	-1(%rdx,%rax), %cl
	jne	.L424
.L419:
	cmpq	%rax, %rsi
	jne	.L420
.L422:
	movl	$1, %eax
	ret
	.p2align 4,,10
	.p2align 3
.L424:
	xorl	%eax, %eax
.L417:
	rep ret
	.cfi_endproc
.LFE297:
	.size	string_starts_with, .-string_starts_with
	.section	.text.array_int_contains,"ax",@progbits
	.p2align 4,,15
	.globl	array_int_contains
	.type	array_int_contains, @function
array_int_contains:
.LFB305:
	.cfi_startproc
	movl	16(%rsp), %edx
	movq	8(%rsp), %rax
	testl	%edx, %edx
	jle	.L429
	cmpl	(%rax), %edi
	je	.L431
	addq	$4, %rax
	subl	$1, %edx
	leaq	(%rax,%rdx,4), %rdx
	jmp	.L427
	.p2align 4,,10
	.p2align 3
.L428:
	addq	$4, %rax
	cmpl	%edi, -4(%rax)
	je	.L431
.L427:
	cmpq	%rdx, %rax
	jne	.L428
.L429:
	xorl	%eax, %eax
	ret
	.p2align 4,,10
	.p2align 3
.L431:
	movl	$1, %eax
	ret
	.cfi_endproc
.LFE305:
	.size	array_int_contains, .-array_int_contains
	.section	.text.byte_is_space,"ax",@progbits
	.p2align 4,,15
	.globl	byte_is_space
	.type	byte_is_space, @function
byte_is_space:
.LFB306:
	.cfi_startproc
	movl	%edi, %edx
	movl	$1, %eax
	andl	$127, %edx
	cmpb	$32, %dl
	je	.L432
	leal	-9(%rdi), %edx
	cmpb	$4, %dl
	jbe	.L432
	xorl	%eax, %eax
	cmpb	$-123, %dil
	sete	%al
.L432:
	rep ret
	.cfi_endproc
.LFE306:
	.size	byte_is_space, .-byte_is_space
	.section	.text.array_string_sort,"ax",@progbits
	.p2align 4,,15
	.globl	array_string_sort
	.type	array_string_sort, @function
array_string_sort:
.LFB314:
	.cfi_startproc
	movslq	16(%rdi), %rdx
	movslq	8(%rdi), %rsi
	leaq	compare_strings(%rip), %rcx
	movq	(%rdi), %rdi
	jmp	qsort@PLT
	.cfi_endproc
.LFE314:
	.size	array_string_sort, .-array_string_sort
	.section	.text.array_string_sort_ignore_case,"ax",@progbits
	.p2align 4,,15
	.globl	array_string_sort_ignore_case
	.type	array_string_sort_ignore_case, @function
array_string_sort_ignore_case:
.LFB315:
	.cfi_startproc
	movslq	16(%rdi), %rdx
	movslq	8(%rdi), %rsi
	leaq	compare_lower_strings(%rip), %rcx
	movq	(%rdi), %rdi
	jmp	qsort@PLT
	.cfi_endproc
.LFE315:
	.size	array_string_sort_ignore_case, .-array_string_sort_ignore_case
	.section	.text.array_string_sort_by_len,"ax",@progbits
	.p2align 4,,15
	.globl	array_string_sort_by_len
	.type	array_string_sort_by_len, @function
array_string_sort_by_len:
.LFB316:
	.cfi_startproc
	movslq	16(%rdi), %rdx
	movslq	8(%rdi), %rsi
	leaq	compare_strings_by_len(%rip), %rcx
	movq	(%rdi), %rdi
	jmp	qsort@PLT
	.cfi_endproc
.LFE316:
	.size	array_string_sort_by_len, .-array_string_sort_by_len
	.section	.text.ustring_str,"ax",@progbits
	.p2align 4,,15
	.globl	ustring_str
	.type	ustring_str, @function
ustring_str:
.LFB317:
	.cfi_startproc
	movq	8(%rsp), %rax
	movq	16(%rsp), %rdx
	ret
	.cfi_endproc
.LFE317:
	.size	ustring_str, .-ustring_str
	.section	.text.ustring_free,"ax",@progbits
	.p2align 4,,15
	.globl	ustring_free
	.type	ustring_free, @function
ustring_free:
.LFB334:
	.cfi_startproc
	movq	24(%rsp), %rdi
	jmp	free@PLT
	.cfi_endproc
.LFE334:
	.size	ustring_free, .-ustring_free
	.section	.text.byte_is_digit,"ax",@progbits
	.p2align 4,,15
	.globl	byte_is_digit
	.type	byte_is_digit, @function
byte_is_digit:
.LFB335:
	.cfi_startproc
	subl	$48, %edi
	xorl	%eax, %eax
	cmpb	$9, %dil
	setbe	%al
	ret
	.cfi_endproc
.LFE335:
	.size	byte_is_digit, .-byte_is_digit
	.section	.text.byte_is_hex_digit,"ax",@progbits
	.p2align 4,,15
	.globl	byte_is_hex_digit
	.type	byte_is_hex_digit, @function
byte_is_hex_digit:
.LFB336:
	.cfi_startproc
	leal	-48(%rdi), %edx
	movl	$1, %eax
	cmpb	$9, %dl
	jbe	.L443
	andl	$-33, %edi
	xorl	%eax, %eax
	subl	$65, %edi
	cmpb	$5, %dil
	setbe	%al
.L443:
	rep ret
	.cfi_endproc
.LFE336:
	.size	byte_is_hex_digit, .-byte_is_hex_digit
	.section	.text.byte_is_oct_digit,"ax",@progbits
	.p2align 4,,15
	.globl	byte_is_oct_digit
	.type	byte_is_oct_digit, @function
byte_is_oct_digit:
.LFB337:
	.cfi_startproc
	subl	$48, %edi
	xorl	%eax, %eax
	cmpb	$7, %dil
	setbe	%al
	ret
	.cfi_endproc
.LFE337:
	.size	byte_is_oct_digit, .-byte_is_oct_digit
	.section	.text.byte_is_bin_digit,"ax",@progbits
	.p2align 4,,15
	.globl	byte_is_bin_digit
	.type	byte_is_bin_digit, @function
byte_is_bin_digit:
.LFB338:
	.cfi_startproc
	subl	$48, %edi
	xorl	%eax, %eax
	cmpb	$1, %dil
	setbe	%al
	ret
	.cfi_endproc
.LFE338:
	.size	byte_is_bin_digit, .-byte_is_bin_digit
	.section	.text.byte_is_letter,"ax",@progbits
	.p2align 4,,15
	.globl	byte_is_letter
	.type	byte_is_letter, @function
byte_is_letter:
.LFB339:
	.cfi_startproc
	andl	$-33, %edi
	xorl	%eax, %eax
	subl	$65, %edi
	cmpb	$25, %dil
	setbe	%al
	ret
	.cfi_endproc
.LFE339:
	.size	byte_is_letter, .-byte_is_letter
	.section	.text.string_free,"ax",@progbits
	.p2align 4,,15
	.globl	string_free
	.type	string_free, @function
string_free:
.LFB340:
	.cfi_startproc
	jmp	free@PLT
	.cfi_endproc
.LFE340:
	.size	string_free, .-string_free
	.section	.text.string_hash,"ax",@progbits
	.p2align 4,,15
	.globl	string_hash
	.type	string_hash, @function
string_hash:
.LFB350:
	.cfi_startproc
	xorl	%eax, %eax
	testl	%esi, %esi
	jle	.L450
	leal	-1(%rsi), %edx
	leaq	1(%rdi,%rdx), %rcx
	.p2align 4,,10
	.p2align 3
.L452:
	movl	%eax, %edx
	addq	$1, %rdi
	sall	$5, %edx
	subl	%eax, %edx
	movzbl	-1(%rdi), %eax
	addl	%edx, %eax
	cmpq	%rdi, %rcx
	jne	.L452
.L450:
	rep ret
	.cfi_endproc
.LFE350:
	.size	string_hash, .-string_hash
	.section	.text.string_bytes,"ax",@progbits
	.p2align 4,,15
	.globl	string_bytes
	.type	string_bytes, @function
string_bytes:
.LFB351:
	.cfi_startproc
	pushq	%r12
	.cfi_def_cfa_offset 16
	.cfi_offset 12, -16
	pushq	%rbp
	.cfi_def_cfa_offset 24
	.cfi_offset 6, -24
	pushq	%rbx
	.cfi_def_cfa_offset 32
	.cfi_offset 3, -32
	movq	%rdi, %rbx
	subq	$80, %rsp
	.cfi_def_cfa_offset 112
	movq	%fs:40, %rax
	movq	%rax, 72(%rsp)
	xorl	%eax, %eax
	testl	%edx, %edx
	je	.L460
	leaq	71(%rsp), %r8
	leaq	32(%rsp), %rdi
	movq	%rdx, %rbp
	movl	$1, %ecx
	movl	$1, %edx
	movq	%rsi, %r12
	movl	$1, %esi
	movb	$0, 71(%rsp)
	call	new_array_from_c_array
	movq	%rsp, %rdi
	subq	$8, %rsp
	.cfi_def_cfa_offset 120
	movl	%ebp, %esi
	pushq	56(%rsp)
	.cfi_def_cfa_offset 128
	pushq	56(%rsp)
	.cfi_def_cfa_offset 136
	pushq	56(%rsp)
	.cfi_def_cfa_offset 144
	call	array_repeat
	addq	$32, %rsp
	.cfi_def_cfa_offset 112
	movq	(%rsp), %rdi
	movslq	%ebp, %rdx
	movq	%r12, %rsi
	call	memcpy@PLT
	movdqa	(%rsp), %xmm0
	movq	16(%rsp), %rax
	movups	%xmm0, (%rbx)
	movq	%rax, 16(%rbx)
.L455:
	movq	72(%rsp), %rcx
	xorq	%fs:40, %rcx
	movq	%rbx, %rax
	jne	.L461
	addq	$80, %rsp
	.cfi_remember_state
	.cfi_def_cfa_offset 32
	popq	%rbx
	.cfi_def_cfa_offset 24
	popq	%rbp
	.cfi_def_cfa_offset 16
	popq	%r12
	.cfi_def_cfa_offset 8
	ret
	.p2align 4,,10
	.p2align 3
.L460:
	.cfi_restore_state
	movl	$1, %esi
	movl	$1, %edi
	call	calloc@PLT
	movq	%rax, (%rbx)
	movabsq	$4294967296, %rax
	movl	$1, 16(%rbx)
	movq	%rax, 8(%rbx)
	jmp	.L455
.L461:
	call	__stack_chk_fail@PLT
	.cfi_endproc
.LFE351:
	.size	string_bytes, .-string_bytes
	.section	.text.string_trim,"ax",@progbits
	.p2align 4,,15
	.globl	string_trim
	.type	string_trim, @function
string_trim:
.LFB308:
	.cfi_startproc
	pushq	%r15
	.cfi_def_cfa_offset 16
	.cfi_offset 15, -16
	pushq	%r14
	.cfi_def_cfa_offset 24
	.cfi_offset 14, -24
	movq	%rdi, %r14
	pushq	%r13
	.cfi_def_cfa_offset 32
	.cfi_offset 13, -32
	pushq	%r12
	.cfi_def_cfa_offset 40
	.cfi_offset 12, -40
	movq	%rsi, %rdi
	pushq	%rbp
	.cfi_def_cfa_offset 48
	.cfi_offset 6, -48
	pushq	%rbx
	.cfi_def_cfa_offset 56
	.cfi_offset 3, -56
	subq	$72, %rsp
	.cfi_def_cfa_offset 128
	movq	%fs:40, %rax
	movq	%rax, 56(%rsp)
	xorl	%eax, %eax
	testl	%esi, %esi
	movl	%esi, 12(%rsp)
	jle	.L463
	testl	%ecx, %ecx
	jle	.L463
	leaq	32(%rsp), %rdi
	movq	%rsi, %rbp
	movq	%rdx, %rsi
	movq	%rcx, %rdx
	xorl	%r12d, %r12d
	call	string_bytes
	movl	40(%rsp), %edi
	movl	%ebp, %eax
	movq	32(%rsp), %r13
	leal	-1(%rax), %r15d
	movq	%rax, 24(%rsp)
	leal	-1(%rdi), %eax
	movl	%edi, 20(%rsp)
	movl	%eax, 8(%rsp)
	.p2align 4,,10
	.p2align 3
.L466:
	movabsq	$-4294967296, %rbx
	movl	%r12d, %edx
	movq	%r14, %rdi
	andq	%rbp, %rbx
	orq	24(%rsp), %rbx
	movq	%rbx, %rsi
	movq	%rbx, %rbp
	call	string_at
	movl	20(%rsp), %edx
	testl	%edx, %edx
	jle	.L467
	cmpb	0(%r13), %al
	je	.L468
	movl	8(%rsp), %ecx
	leaq	1(%r13), %rdx
	addq	%rdx, %rcx
	jmp	.L469
	.p2align 4,,10
	.p2align 3
.L470:
	addq	$1, %rdx
	cmpb	-1(%rdx), %al
	je	.L468
.L469:
	cmpq	%rdx, %rcx
	jne	.L470
	movb	$0, 19(%rsp)
.L471:
	movl	%r15d, %edx
	movq	%r14, %rdi
	movq	%rbx, %rsi
	call	string_at
	cmpb	%al, 0(%r13)
	je	.L472
	movl	8(%rsp), %ecx
	leaq	1(%r13), %rdx
	addq	%rdx, %rcx
	jmp	.L479
	.p2align 4,,10
	.p2align 3
.L473:
	addq	$1, %rdx
	cmpb	%al, -1(%rdx)
	je	.L472
.L479:
	cmpq	%rdx, %rcx
	jne	.L473
	cmpl	%r15d, %r12d
	jg	.L478
	cmpl	12(%rsp), %r12d
	jg	.L475
	cmpb	$0, 19(%rsp)
	jne	.L466
	.p2align 4,,10
	.p2align 3
.L475:
	movq	56(%rsp), %rax
	xorq	%fs:40, %rax
	jne	.L481
	addq	$72, %rsp
	.cfi_remember_state
	.cfi_def_cfa_offset 56
	leal	1(%r15), %ecx
	movl	%r12d, %edx
	movq	%r14, %rdi
	movq	%rbx, %rsi
	popq	%rbx
	.cfi_def_cfa_offset 48
	popq	%rbp
	.cfi_def_cfa_offset 40
	popq	%r12
	.cfi_def_cfa_offset 32
	popq	%r13
	.cfi_def_cfa_offset 24
	popq	%r14
	.cfi_def_cfa_offset 16
	popq	%r15
	.cfi_def_cfa_offset 8
	jmp	string_substr
	.p2align 4,,10
	.p2align 3
.L463:
	.cfi_restore_state
	movq	%r14, %rax
	movq	%rdi, %rdx
.L465:
	movq	56(%rsp), %rsi
	xorq	%fs:40, %rsi
	jne	.L481
	addq	$72, %rsp
	.cfi_remember_state
	.cfi_def_cfa_offset 56
	popq	%rbx
	.cfi_def_cfa_offset 48
	popq	%rbp
	.cfi_def_cfa_offset 40
	popq	%r12
	.cfi_def_cfa_offset 32
	popq	%r13
	.cfi_def_cfa_offset 24
	popq	%r14
	.cfi_def_cfa_offset 16
	popq	%r15
	.cfi_def_cfa_offset 8
	ret
	.p2align 4,,10
	.p2align 3
.L472:
	.cfi_restore_state
	subl	$1, %r15d
	cmpl	%r15d, %r12d
	jg	.L478
	cmpl	12(%rsp), %r12d
	jle	.L466
	jmp	.L475
	.p2align 4,,10
	.p2align 3
.L468:
	addl	$1, %r12d
	movb	$1, 19(%rsp)
	jmp	.L471
	.p2align 4,,10
	.p2align 3
.L467:
	movl	%r15d, %edx
	movq	%r14, %rdi
	movq	%rbx, %rsi
	call	string_at
	cmpl	%r15d, %r12d
	jle	.L475
.L478:
	leaq	.LC37(%rip), %rax
	xorl	%edx, %edx
	jmp	.L465
.L481:
	call	__stack_chk_fail@PLT
	.cfi_endproc
.LFE308:
	.size	string_trim, .-string_trim
	.section	.rodata.str1.1
.LC38:
	.string	" \n\t\013\f\r"
	.section	.text.string_trim_space,"ax",@progbits
	.p2align 4,,15
	.globl	string_trim_space
	.type	string_trim_space, @function
string_trim_space:
.LFB307:
	.cfi_startproc
	leaq	.LC38(%rip), %rdx
	movl	$6, %ecx
	jmp	string_trim
	.cfi_endproc
.LFE307:
	.size	string_trim_space, .-string_trim_space
	.section	.rodata.str1.1
.LC39:
	.string	"("
.LC40:
	.string	"]"
.LC41:
	.string	"["
.LC42:
	.string	"addr2line -e %.*s %.*s"
.LC43:
	.string	"r"
.LC44:
	.string	":"
.LC45:
	.string	"??:0:"
.LC46:
	.string	"??:?:"
.LC47:
	.string	": (d."
.LC48:
	.string	" (discriminator"
.LC49:
	.string	"%-46s | %14s | %.*s"
	.section	.text.print_backtrace_skipping_top_frames_linux,"ax",@progbits
	.p2align 4,,15
	.globl	print_backtrace_skipping_top_frames_linux
	.type	print_backtrace_skipping_top_frames_linux, @function
print_backtrace_skipping_top_frames_linux:
.LFB151:
	.cfi_startproc
	pushq	%r15
	.cfi_def_cfa_offset 16
	.cfi_offset 15, -16
	pushq	%r14
	.cfi_def_cfa_offset 24
	.cfi_offset 14, -24
	movl	$100, %ecx
	pushq	%r13
	.cfi_def_cfa_offset 32
	.cfi_offset 13, -32
	pushq	%r12
	.cfi_def_cfa_offset 40
	.cfi_offset 12, -40
	movslq	%edi, %r12
	pushq	%rbp
	.cfi_def_cfa_offset 48
	.cfi_offset 6, -48
	pushq	%rbx
	.cfi_def_cfa_offset 56
	.cfi_offset 3, -56
	movl	$100, %esi
	subq	$2024, %rsp
	.cfi_def_cfa_offset 2080
	movq	%fs:40, %rax
	movq	%rax, 2008(%rsp)
	xorl	%eax, %eax
	leaq	208(%rsp), %r13
	leaq	208(%rsp), %rdi
	leaq	176(%rsp), %rbx
	rep stosq
	movq	%r13, %rdi
	call	backtrace@PLT
	xorl	%edx, %edx
	subl	%r12d, %eax
	xorl	%esi, %esi
	movl	$16, %ecx
	movq	%rbx, %rdi
	movl	%eax, %ebp
	call	new_array
	leaq	0(%r13,%r12,8), %rdi
	movl	%ebp, %esi
	call	backtrace_symbols@PLT
	testl	%ebp, %ebp
	jle	.L492
	movq	(%rax), %r14
	testq	%r14, %r14
	je	.L488
	leaq	8(%rax), %r13
	leal	-1(%rbp), %eax
	leaq	160(%rsp), %rbp
	leaq	0(%r13,%rax,8), %r12
	jmp	.L490
	.p2align 4,,10
	.p2align 3
.L491:
	addq	$8, %r13
	movq	-8(%r13), %r14
	testq	%r14, %r14
	je	.L488
.L490:
	movq	%r14, %rdi
	call	strlen@PLT
	movq	%rbp, %rsi
	movq	%rbx, %rdi
	movq	%r14, 160(%rsp)
	movl	%eax, 168(%rsp)
	call	array_push
	cmpq	%r13, %r12
	jne	.L491
.L492:
	movl	184(%rsp), %eax
	movq	$0, 32(%rsp)
	movl	$0, 96(%rsp)
	testl	%eax, %eax
	jle	.L487
	leaq	1008(%rsp), %r13
	movabsq	$-4294967296, %r14
	.p2align 4,,10
	.p2align 3
.L486:
	movq	32(%rsp), %rax
	addq	176(%rsp), %rax
	leaq	.LC39(%rip), %rdx
	movq	(%rax), %rbp
	movq	8(%rax), %rbx
	movl	8(%rax), %eax
	movq	%rbp, %rdi
	movq	%rbx, %rsi
	movq	%rbp, 88(%rsp)
	movl	%eax, 100(%rsp)
	movq	64(%rsp), %rax
	andq	%r14, %rax
	orq	$1, %rax
	movq	%rax, %rcx
	movq	%rax, 64(%rsp)
	call	string_all_before
	movq	56(%rsp), %rsi
	movq	%rax, 72(%rsp)
	movq	%rdx, %r12
	movq	16(%rsp), %rax
	leaq	.LC41(%rip), %rdx
	andq	%r14, %rsi
	movq	%rsi, %rdi
	andq	%r14, %rax
	movq	%rbx, %rsi
	orq	$1, %rdi
	orq	$1, %rax
	movq	%rdi, %rcx
	movq	%rdi, 56(%rsp)
	movq	%rbp, %rdi
	movq	%rax, 16(%rsp)
	call	string_all_after
	movq	16(%rsp), %rcx
	movq	%rdx, %rsi
	leaq	.LC40(%rip), %rdx
	movq	%rax, %rdi
	call	string_all_before
	movq	48(%rsp), %rsi
	movq	%rdx, 80(%rsp)
	leaq	.LC41(%rip), %rdx
	movq	%rax, 24(%rsp)
	andq	%r14, %rsi
	movq	%rsi, %rdi
	movq	%rbx, %rsi
	orq	$1, %rdi
	movq	%rdi, %rcx
	movq	%rdi, 48(%rsp)
	movq	%rbp, %rdi
	call	string_all_before
	movq	24(%rsp), %r8
	movq	%rdx, 112(%rsp)
	leaq	.LC42(%rip), %rdi
	movl	80(%rsp), %ecx
	movq	72(%rsp), %rdx
	movl	%r12d, %esi
	movq	%rax, 104(%rsp)
	xorl	%eax, %eax
	call	_STR
	leaq	.LC43(%rip), %rsi
	movq	%rax, %rdi
	call	popen@PLT
	testq	%rax, %rax
	movq	%rax, %r12
	je	.L516
	movl	$125, %ecx
	xorl	%eax, %eax
	movq	%r13, %rdi
	rep stosq
	leaq	.LC37(%rip), %rbp
	andq	%r14, %r15
	xorl	%ebx, %ebx
.L495:
	movq	%r12, %rdx
	movl	$1000, %esi
	movq	%r13, %rdi
	call	fgets@PLT
	testq	%rax, %rax
	je	.L517
	movq	%r13, %rdx
.L496:
	movl	(%rdx), %ecx
	addq	$4, %rdx
	leal	-16843009(%rcx), %eax
	notl	%ecx
	andl	%ecx, %eax
	andl	$-2139062144, %eax
	je	.L496
	movl	%eax, %ecx
	movl	%ebx, %esi
	shrl	$16, %ecx
	testl	$32896, %eax
	cmove	%ecx, %eax
	leaq	2(%rdx), %rcx
	movl	%eax, %edi
	cmove	%rcx, %rdx
	addb	%al, %dil
	movq	8(%rsp), %rax
	sbbq	$3, %rdx
	andq	%r14, %r15
	movq	%rbp, %rdi
	subl	%r13d, %edx
	orq	%r15, %rsi
	andq	%r14, %rax
	orq	%rdx, %rax
	movq	%r13, %rdx
	movq	%rax, %rcx
	movq	%rax, 8(%rsp)
	call	string_add
	movq	%rdx, %r15
	movl	%edx, %ebx
	movq	%rax, %rbp
	jmp	.L495
	.p2align 4,,10
	.p2align 3
.L517:
	movq	40(%rsp), %rax
	movl	%ebx, %esi
	movq	%r15, %rbx
	andq	%r14, %rbx
	leaq	.LC38(%rip), %rdx
	movq	%rbp, %rdi
	orq	%rbx, %rsi
	andq	%r14, %rax
	orq	$1, %rax
	movq	%rax, 40(%rsp)
	movq	120(%rsp), %rax
	andq	%r14, %rax
	orq	$6, %rax
	movq	%rax, %rcx
	movq	%rax, 120(%rsp)
	call	string_trim
	movq	40(%rsp), %rcx
	movq	%rdx, %rsi
	leaq	.LC44(%rip), %rdx
	movq	%rax, %rdi
	call	string_add
	movq	%r12, %rdi
	movq	%rdx, %r15
	movq	%rax, %rbx
	call	pclose@PLT
	testl	%eax, %eax
	movl	%eax, %ebp
	jne	.L516
	movq	144(%rsp), %rax
	leaq	.LC45(%rip), %rdx
	movq	%rbx, %rdi
	movq	%r15, %rsi
	andq	%r14, %rax
	orq	$5, %rax
	movq	%rax, %rcx
	movq	%rax, 144(%rsp)
	call	string_eq
	testl	%eax, %eax
	jne	.L502
	movq	152(%rsp), %rax
	leaq	.LC46(%rip), %rdx
	movq	%rbx, %rdi
	movq	%r15, %rsi
	andq	%r14, %rax
	orq	$5, %rax
	movq	%rax, %rcx
	movq	%rax, 152(%rsp)
	call	string_eq
	testl	%eax, %eax
	jne	.L502
	movl	%r15d, %ebp
.L501:
	movq	136(%rsp), %rax
	andq	%r14, %r15
	leaq	.LC47(%rip), %r8
	movl	%ebp, %esi
	leaq	.LC48(%rip), %rdx
	movq	%rbx, %rdi
	orq	%r15, %rsi
	andq	%r14, %rax
	orq	$5, %rax
	movq	%rax, %r9
	movq	%rax, 136(%rsp)
	movq	128(%rsp), %rax
	andq	%r14, %rax
	orq	$15, %rax
	movq	%rax, %rcx
	movq	%rax, 128(%rsp)
	call	string_replace
	movl	112(%rsp), %ecx
	movq	%rdx, %r15
	movq	104(%rsp), %r8
	movq	24(%rsp), %rdx
	leaq	.LC49(%rip), %rdi
	movq	%rax, %rsi
	xorl	%eax, %eax
	call	_STR
	leaq	.LC26(%rip), %rsi
	movq	%rax, %rcx
	movl	$1, %edi
	xorl	%eax, %eax
	call	__printf_chk@PLT
.L503:
	addl	$1, 96(%rsp)
	addq	$16, 32(%rsp)
	movl	96(%rsp), %eax
	cmpl	%eax, 184(%rsp)
	jg	.L486
.L487:
	movq	2008(%rsp), %rbx
	xorq	%fs:40, %rbx
	movl	$1, %eax
	jne	.L518
	addq	$2024, %rsp
	.cfi_remember_state
	.cfi_def_cfa_offset 56
	popq	%rbx
	.cfi_def_cfa_offset 48
	popq	%rbp
	.cfi_def_cfa_offset 40
	popq	%r12
	.cfi_def_cfa_offset 32
	popq	%r13
	.cfi_def_cfa_offset 24
	popq	%r14
	.cfi_def_cfa_offset 16
	popq	%r15
	.cfi_def_cfa_offset 8
	ret
	.p2align 4,,10
	.p2align 3
.L516:
	.cfi_restore_state
	movq	88(%rsp), %rcx
	movl	100(%rsp), %edx
	leaq	.LC26(%rip), %rsi
	movl	$1, %edi
	xorl	%eax, %eax
	call	__printf_chk@PLT
	jmp	.L503
	.p2align 4,,10
	.p2align 3
.L502:
	leaq	.LC37(%rip), %rbx
	jmp	.L501
.L488:
	call	tos2.part.8
.L518:
	call	__stack_chk_fail@PLT
	.cfi_endproc
.LFE151:
	.size	print_backtrace_skipping_top_frames_linux, .-print_backtrace_skipping_top_frames_linux
	.section	.text.print_backtrace_skipping_top_frames_nix,"ax",@progbits
	.p2align 4,,15
	.globl	print_backtrace_skipping_top_frames_nix
	.type	print_backtrace_skipping_top_frames_nix, @function
print_backtrace_skipping_top_frames_nix:
.LFB148:
	.cfi_startproc
	addl	$2, %edi
	jmp	print_backtrace_skipping_top_frames_linux
	.cfi_endproc
.LFE148:
	.size	print_backtrace_skipping_top_frames_nix, .-print_backtrace_skipping_top_frames_nix
	.section	.rodata.str1.8
	.align 8
.LC50:
	.string	"print_backtrace_skipping_top_frames is not implemented on this platform for now...\n"
	.section	.text.print_backtrace_skipping_top_frames,"ax",@progbits
	.p2align 4,,15
	.globl	print_backtrace_skipping_top_frames
	.type	print_backtrace_skipping_top_frames, @function
print_backtrace_skipping_top_frames:
.LFB129:
	.cfi_startproc
	subq	$8, %rsp
	.cfi_def_cfa_offset 16
	addl	$2, %edi
	call	print_backtrace_skipping_top_frames_linux
	testl	%eax, %eax
	je	.L523
	addq	$8, %rsp
	.cfi_remember_state
	.cfi_def_cfa_offset 8
	ret
	.p2align 4,,10
	.p2align 3
.L523:
	.cfi_restore_state
	leaq	.LC50(%rip), %rcx
	leaq	.LC26(%rip), %rsi
	movl	$83, %edx
	movl	$1, %edi
	addq	$8, %rsp
	.cfi_def_cfa_offset 8
	jmp	__printf_chk@PLT
	.cfi_endproc
.LFE129:
	.size	print_backtrace_skipping_top_frames, .-print_backtrace_skipping_top_frames
	.section	.text.print_backtrace,"ax",@progbits
	.p2align 4,,15
	.globl	print_backtrace
	.type	print_backtrace, @function
print_backtrace:
.LFB130:
	.cfi_startproc
	subq	$8, %rsp
	.cfi_def_cfa_offset 16
	movl	$4, %edi
	call	print_backtrace_skipping_top_frames_linux
	testl	%eax, %eax
	je	.L527
	addq	$8, %rsp
	.cfi_remember_state
	.cfi_def_cfa_offset 8
	ret
	.p2align 4,,10
	.p2align 3
.L527:
	.cfi_restore_state
	leaq	.LC50(%rip), %rcx
	leaq	.LC26(%rip), %rsi
	movl	$83, %edx
	movl	$1, %edi
	addq	$8, %rsp
	.cfi_def_cfa_offset 8
	jmp	__printf_chk@PLT
	.cfi_endproc
.LFE130:
	.size	print_backtrace, .-print_backtrace
	.section	.rodata.str1.1
.LC51:
	.string	"V panic: %.*s"
	.section	.text.v_panic,"ax",@progbits
	.p2align 4,,15
	.globl	v_panic
	.type	v_panic, @function
v_panic:
.LFB132:
	.cfi_startproc
	movq	%rdi, %rdx
	leaq	.LC51(%rip), %rdi
	subq	$8, %rsp
	.cfi_def_cfa_offset 16
	xorl	%eax, %eax
	call	_STR
	leaq	.LC26(%rip), %rsi
	movq	%rax, %rcx
	movl	$1, %edi
	xorl	%eax, %eax
	call	__printf_chk@PLT
	xorl	%eax, %eax
	call	print_backtrace
	movl	$1, %edi
	call	exit@PLT
	.cfi_endproc
.LFE132:
	.size	v_panic, .-v_panic
	.section	.rodata.str1.1
.LC52:
	.string	"tos3: nil string"
	.section	.text.tos3,"ax",@progbits
	.p2align 4,,15
	.globl	tos3
	.type	tos3, @function
tos3:
.LFB255:
	.cfi_startproc
	testq	%rdi, %rdi
	pushq	%rbx
	.cfi_def_cfa_offset 16
	.cfi_offset 3, -16
	je	.L533
	movq	%rdi, %rbx
	call	strlen@PLT
	movl	%eax, %edx
	movq	%rbx, %rax
	popq	%rbx
	.cfi_remember_state
	.cfi_def_cfa_offset 8
	ret
.L533:
	.cfi_restore_state
	leaq	.LC52(%rip), %rdi
	call	tos3
	movq	%rdx, %rsi
	movq	%rax, %rdi
	call	v_panic
	.cfi_endproc
.LFE255:
	.size	tos3, .-tos3
	.section	.rodata.str1.1
.LC53:
	.string	"array.first: array is empty"
	.section	.text.array_first,"ax",@progbits
	.p2align 4,,15
	.globl	array_first
	.type	array_first, @function
array_first:
.LFB99:
	.cfi_startproc
	subq	$8, %rsp
	.cfi_def_cfa_offset 16
	movl	24(%rsp), %eax
	testl	%eax, %eax
	je	.L537
	movq	16(%rsp), %rax
	addq	$8, %rsp
	.cfi_remember_state
	.cfi_def_cfa_offset 8
	ret
.L537:
	.cfi_restore_state
	leaq	.LC53(%rip), %rdi
	movl	$27, %esi
	call	v_panic
	.cfi_endproc
.LFE99:
	.size	array_first, .-array_first
	.section	.rodata.str1.1
.LC54:
	.string	"array.last: array is empty"
	.section	.text.array_last,"ax",@progbits
	.p2align 4,,15
	.globl	array_last
	.type	array_last, @function
array_last:
.LFB100:
	.cfi_startproc
	subq	$8, %rsp
	.cfi_def_cfa_offset 16
	movl	24(%rsp), %eax
	testl	%eax, %eax
	je	.L541
	subl	$1, %eax
	imull	32(%rsp), %eax
	cltq
	addq	16(%rsp), %rax
	addq	$8, %rsp
	.cfi_remember_state
	.cfi_def_cfa_offset 8
	ret
.L541:
	.cfi_restore_state
	leaq	.LC54(%rip), %rdi
	movl	$26, %esi
	call	v_panic
	.cfi_endproc
.LFE100:
	.size	array_last, .-array_last
	.section	.rodata.str1.1
.LC55:
	.string	"eprintln(NIL)"
	.section	.text.eprintln,"ax",@progbits
	.p2align 4,,15
	.globl	eprintln
	.type	eprintln, @function
eprintln:
.LFB133:
	.cfi_startproc
	pushq	%rbp
	.cfi_def_cfa_offset 16
	.cfi_offset 6, -16
	pushq	%rbx
	.cfi_def_cfa_offset 24
	.cfi_offset 3, -24
	subq	$8, %rsp
	.cfi_def_cfa_offset 32
	testq	%rdi, %rdi
	je	.L545
	movq	%rdi, %rbx
	movq	stdout(%rip), %rdi
	movq	%rsi, %rbp
	call	fflush@PLT
	movq	stderr(%rip), %rdi
	call	fflush@PLT
	movq	stderr(%rip), %rdi
	leaq	.LC26(%rip), %rdx
	movq	%rbx, %r8
	movl	%ebp, %ecx
	movl	$1, %esi
	xorl	%eax, %eax
	call	__fprintf_chk@PLT
	movq	stderr(%rip), %rdi
	addq	$8, %rsp
	.cfi_remember_state
	.cfi_def_cfa_offset 24
	popq	%rbx
	.cfi_def_cfa_offset 16
	popq	%rbp
	.cfi_def_cfa_offset 8
	jmp	fflush@PLT
.L545:
	.cfi_restore_state
	leaq	.LC55(%rip), %rdi
	movl	$13, %esi
	call	v_panic
	.cfi_endproc
.LFE133:
	.size	eprintln, .-eprintln
	.section	.rodata.str1.1
.LC56:
	.string	"eprint(NIL)"
	.section	.text.eprint,"ax",@progbits
	.p2align 4,,15
	.globl	eprint
	.type	eprint, @function
eprint:
.LFB134:
	.cfi_startproc
	pushq	%rbp
	.cfi_def_cfa_offset 16
	.cfi_offset 6, -16
	pushq	%rbx
	.cfi_def_cfa_offset 24
	.cfi_offset 3, -24
	subq	$8, %rsp
	.cfi_def_cfa_offset 32
	testq	%rdi, %rdi
	je	.L549
	movq	%rdi, %rbx
	movq	stdout(%rip), %rdi
	movq	%rsi, %rbp
	call	fflush@PLT
	movq	stderr(%rip), %rdi
	call	fflush@PLT
	movq	stderr(%rip), %rdi
	leaq	.LC25(%rip), %rdx
	movq	%rbx, %r8
	movl	%ebp, %ecx
	movl	$1, %esi
	xorl	%eax, %eax
	call	__fprintf_chk@PLT
	movq	stderr(%rip), %rdi
	addq	$8, %rsp
	.cfi_remember_state
	.cfi_def_cfa_offset 24
	popq	%rbx
	.cfi_def_cfa_offset 16
	popq	%rbp
	.cfi_def_cfa_offset 8
	jmp	fflush@PLT
.L549:
	.cfi_restore_state
	leaq	.LC56(%rip), %rdi
	movl	$11, %esi
	call	v_panic
	.cfi_endproc
.LFE134:
	.size	eprint, .-eprint
	.section	.rodata.str1.1
.LC57:
	.string	"calloc(<=0)"
	.section	.text.vcalloc.part.5,"ax",@progbits
	.p2align 4,,15
	.type	vcalloc.part.5, @function
vcalloc.part.5:
.LFB535:
	.cfi_startproc
	leaq	.LC57(%rip), %rdi
	subq	$8, %rsp
	.cfi_def_cfa_offset 16
	movl	$11, %esi
	call	v_panic
	.cfi_endproc
.LFE535:
	.size	vcalloc.part.5, .-vcalloc.part.5
	.section	.text.vcalloc,"ax",@progbits
	.p2align 4,,15
	.globl	vcalloc
	.type	vcalloc, @function
vcalloc:
.LFB139:
	.cfi_startproc
	testl	%edi, %edi
	jle	.L557
	movslq	%edi, %rdi
	movl	$1, %esi
	jmp	calloc@PLT
.L557:
	subq	$8, %rsp
	.cfi_def_cfa_offset 16
	call	vcalloc.part.5
	.cfi_endproc
.LFE139:
	.size	vcalloc, .-vcalloc
	.section	.text.new_array,"ax",@progbits
	.p2align 4,,15
	.globl	new_array
	.type	new_array, @function
new_array:
.LFB86:
	.cfi_startproc
	pushq	%r13
	.cfi_def_cfa_offset 16
	.cfi_offset 13, -16
	pushq	%r12
	.cfi_def_cfa_offset 24
	.cfi_offset 12, -24
	movl	%esi, %r13d
	pushq	%rbp
	.cfi_def_cfa_offset 32
	.cfi_offset 6, -32
	pushq	%rbx
	.cfi_def_cfa_offset 40
	.cfi_offset 3, -40
	movl	%ecx, %r12d
	movq	%rdi, %rbx
	subq	$8, %rsp
	.cfi_def_cfa_offset 48
	testl	%edx, %edx
	je	.L561
	movl	%edx, %edi
	movl	%edx, %ebp
	imull	%ecx, %edi
.L559:
	testl	%edi, %edi
	jle	.L563
	movslq	%edi, %rdi
	movl	$1, %esi
	call	calloc@PLT
	movl	%r13d, 8(%rbx)
	movq	%rax, (%rbx)
	movq	%rbx, %rax
	movl	%ebp, 12(%rbx)
	movl	%r12d, 16(%rbx)
	addq	$8, %rsp
	.cfi_remember_state
	.cfi_def_cfa_offset 40
	popq	%rbx
	.cfi_def_cfa_offset 32
	popq	%rbp
	.cfi_def_cfa_offset 24
	popq	%r12
	.cfi_def_cfa_offset 16
	popq	%r13
	.cfi_def_cfa_offset 8
	ret
	.p2align 4,,10
	.p2align 3
.L561:
	.cfi_restore_state
	movl	%ecx, %edi
	movl	$1, %ebp
	jmp	.L559
.L563:
	call	vcalloc.part.5
	.cfi_endproc
.LFE86:
	.size	new_array, .-new_array
	.section	.text.new_array_from_c_array,"ax",@progbits
	.p2align 4,,15
	.globl	new_array_from_c_array
	.type	new_array_from_c_array, @function
new_array_from_c_array:
.LFB88:
	.cfi_startproc
	testl	%edx, %edx
	pushq	%r14
	.cfi_def_cfa_offset 16
	.cfi_offset 14, -16
	movl	%edx, %r14d
	pushq	%r13
	.cfi_def_cfa_offset 24
	.cfi_offset 13, -24
	movq	%r8, %r13
	pushq	%r12
	.cfi_def_cfa_offset 32
	.cfi_offset 12, -32
	movl	%esi, %r12d
	pushq	%rbp
	.cfi_def_cfa_offset 40
	.cfi_offset 6, -40
	movl	%ecx, %ebp
	pushq	%rbx
	.cfi_def_cfa_offset 48
	.cfi_offset 3, -48
	movq	%rdi, %rbx
	movl	%ecx, %edi
	je	.L565
	movl	%edx, %edi
	imull	%ecx, %edi
.L565:
	testl	%edi, %edi
	jle	.L571
	movslq	%edi, %rdi
	movl	$1, %esi
	call	calloc@PLT
	movl	%ebp, %edx
	movq	%r13, %rsi
	movq	%rax, %rdi
	imull	%r12d, %edx
	movslq	%edx, %rdx
	call	memcpy@PLT
	movl	%r12d, 8(%rbx)
	movq	%rax, (%rbx)
	movq	%rbx, %rax
	movl	%r14d, 12(%rbx)
	movl	%ebp, 16(%rbx)
	popq	%rbx
	.cfi_remember_state
	.cfi_def_cfa_offset 40
	popq	%rbp
	.cfi_def_cfa_offset 32
	popq	%r12
	.cfi_def_cfa_offset 24
	popq	%r13
	.cfi_def_cfa_offset 16
	popq	%r14
	.cfi_def_cfa_offset 8
	ret
.L571:
	.cfi_restore_state
	call	vcalloc.part.5
	.cfi_endproc
.LFE88:
	.size	new_array_from_c_array, .-new_array_from_c_array
	.section	.text.array_ensure_cap,"ax",@progbits
	.p2align 4,,15
	.globl	array_ensure_cap
	.type	array_ensure_cap, @function
array_ensure_cap:
.LFB90:
	.cfi_startproc
	movl	12(%rdi), %eax
	cmpl	%esi, %eax
	jge	.L584
	pushq	%rbp
	.cfi_def_cfa_offset 16
	.cfi_offset 6, -16
	pushq	%rbx
	.cfi_def_cfa_offset 24
	.cfi_offset 3, -24
	movq	%rdi, %rbp
	subq	$8, %rsp
	.cfi_def_cfa_offset 32
	testl	%eax, %eax
	jne	.L587
	cmpl	$2, %esi
	movl	$2, %ebx
	jle	.L580
	.p2align 4,,10
	.p2align 3
.L576:
	addl	%ebx, %ebx
	cmpl	%ebx, %esi
	jg	.L576
	testl	%eax, %eax
	jne	.L575
.L580:
	movl	16(%rbp), %edi
	imull	%ebx, %edi
	testl	%edi, %edi
	jle	.L588
	movslq	%edi, %rdi
	movl	$1, %esi
	call	calloc@PLT
	movl	%ebx, 12(%rbp)
	movq	%rax, 0(%rbp)
	addq	$8, %rsp
	.cfi_remember_state
	.cfi_def_cfa_offset 24
	popq	%rbx
	.cfi_def_cfa_offset 16
	popq	%rbp
	.cfi_def_cfa_offset 8
	ret
	.p2align 4,,10
	.p2align 3
.L587:
	.cfi_restore_state
	leal	(%rax,%rax), %ebx
	cmpl	%ebx, %esi
	jg	.L576
.L575:
	movl	16(%rbp), %esi
	movq	0(%rbp), %rdi
	imull	%ebx, %esi
	movslq	%esi, %rsi
	call	realloc@PLT
	movl	%ebx, 12(%rbp)
	movq	%rax, 0(%rbp)
	addq	$8, %rsp
	.cfi_def_cfa_offset 24
	popq	%rbx
	.cfi_def_cfa_offset 16
	popq	%rbp
	.cfi_def_cfa_offset 8
	ret
	.p2align 4,,10
	.p2align 3
.L584:
	.cfi_restore 3
	.cfi_restore 6
	rep ret
.L588:
	.cfi_def_cfa_offset 32
	.cfi_offset 3, -24
	.cfi_offset 6, -16
	call	vcalloc.part.5
	.cfi_endproc
.LFE90:
	.size	array_ensure_cap, .-array_ensure_cap
	.section	.text.array_push,"ax",@progbits
	.p2align 4,,15
	.globl	array_push
	.type	array_push, @function
array_push:
.LFB106:
	.cfi_startproc
	pushq	%rbp
	.cfi_def_cfa_offset 16
	.cfi_offset 6, -16
	pushq	%rbx
	.cfi_def_cfa_offset 24
	.cfi_offset 3, -24
	movq	%rsi, %rbp
	movq	%rdi, %rbx
	subq	$8, %rsp
	.cfi_def_cfa_offset 32
	movl	8(%rdi), %eax
	leal	1(%rax), %esi
	call	array_ensure_cap
	movslq	16(%rbx), %rdx
	movl	8(%rbx), %edi
	movq	%rbp, %rsi
	imull	%edx, %edi
	movslq	%edi, %rdi
	addq	(%rbx), %rdi
	call	memcpy@PLT
	addl	$1, 8(%rbx)
	addq	$8, %rsp
	.cfi_def_cfa_offset 24
	popq	%rbx
	.cfi_def_cfa_offset 16
	popq	%rbp
	.cfi_def_cfa_offset 8
	ret
	.cfi_endproc
.LFE106:
	.size	array_push, .-array_push
	.section	.text.array_pointers,"ax",@progbits
	.p2align 4,,15
	.globl	array_pointers
	.type	array_pointers, @function
array_pointers:
.LFB126:
	.cfi_startproc
	pushq	%r15
	.cfi_def_cfa_offset 16
	.cfi_offset 15, -16
	pushq	%r14
	.cfi_def_cfa_offset 24
	.cfi_offset 14, -24
	movl	$1, %esi
	pushq	%r13
	.cfi_def_cfa_offset 32
	.cfi_offset 13, -32
	pushq	%r12
	.cfi_def_cfa_offset 40
	.cfi_offset 12, -40
	pushq	%rbp
	.cfi_def_cfa_offset 48
	.cfi_offset 6, -48
	pushq	%rbx
	.cfi_def_cfa_offset 56
	.cfi_offset 3, -56
	subq	$72, %rsp
	.cfi_def_cfa_offset 128
	movl	136(%rsp), %ebp
	movq	%rdi, 8(%rsp)
	movl	$8, %edi
	movq	%fs:40, %rax
	movq	%rax, 56(%rsp)
	xorl	%eax, %eax
	call	calloc@PLT
	testl	%ebp, %ebp
	movq	%rax, 32(%rsp)
	movabsq	$4294967296, %rax
	movq	%rax, 40(%rsp)
	movl	$8, 48(%rsp)
	jle	.L592
	movslq	144(%rsp), %r14
	movq	128(%rsp), %r15
	leaq	24(%rsp), %r13
	leaq	32(%rsp), %r12
	xorl	%ebx, %ebx
	.p2align 4,,10
	.p2align 3
.L593:
	movq	%r13, %rsi
	movq	%r12, %rdi
	addl	$1, %ebx
	movq	%r15, 24(%rsp)
	addq	%r14, %r15
	call	array_push
	cmpl	%ebx, %ebp
	jne	.L593
.L592:
	movq	8(%rsp), %rdx
	movq	48(%rsp), %rax
	movdqa	32(%rsp), %xmm0
	movq	56(%rsp), %rcx
	xorq	%fs:40, %rcx
	movq	%rax, 16(%rdx)
	movq	%rdx, %rax
	movups	%xmm0, (%rdx)
	jne	.L597
	addq	$72, %rsp
	.cfi_remember_state
	.cfi_def_cfa_offset 56
	popq	%rbx
	.cfi_def_cfa_offset 48
	popq	%rbp
	.cfi_def_cfa_offset 40
	popq	%r12
	.cfi_def_cfa_offset 32
	popq	%r13
	.cfi_def_cfa_offset 24
	popq	%r14
	.cfi_def_cfa_offset 16
	popq	%r15
	.cfi_def_cfa_offset 8
	ret
.L597:
	.cfi_restore_state
	call	__stack_chk_fail@PLT
	.cfi_endproc
.LFE126:
	.size	array_pointers, .-array_pointers
	.section	.text.array_clone,"ax",@progbits
	.p2align 4,,15
	.globl	array_clone
	.type	array_clone, @function
array_clone:
.LFB103:
	.cfi_startproc
	pushq	%r15
	.cfi_def_cfa_offset 16
	.cfi_offset 15, -16
	pushq	%r14
	.cfi_def_cfa_offset 24
	.cfi_offset 14, -24
	pushq	%r13
	.cfi_def_cfa_offset 32
	.cfi_offset 13, -32
	pushq	%r12
	.cfi_def_cfa_offset 40
	.cfi_offset 12, -40
	pushq	%rbp
	.cfi_def_cfa_offset 48
	.cfi_offset 6, -48
	pushq	%rbx
	.cfi_def_cfa_offset 56
	.cfi_offset 3, -56
	movq	%rdi, %rbx
	movq	%rsi, %rbp
	subq	$8, %rsp
	.cfi_def_cfa_offset 64
	movl	12(%rsi), %r13d
	movl	16(%rsi), %r12d
	movl	%r13d, %edi
	imull	%r12d, %edi
	cmpl	$0, %edi
	je	.L601
	jle	.L600
	movslq	%edi, %rdi
	movq	%rdi, %r14
	jmp	.L599
	.p2align 4,,10
	.p2align 3
.L601:
	xorl	%r14d, %r14d
	movl	$1, %edi
.L599:
	movl	$1, %esi
	call	calloc@PLT
	movl	8(%rbp), %r15d
	movq	0(%rbp), %rsi
	movq	%r14, %rdx
	movq	%rax, %rdi
	call	memcpy@PLT
	movl	%r15d, 8(%rbx)
	movq	%rax, (%rbx)
	movq	%rbx, %rax
	movl	%r13d, 12(%rbx)
	movl	%r12d, 16(%rbx)
	addq	$8, %rsp
	.cfi_remember_state
	.cfi_def_cfa_offset 56
	popq	%rbx
	.cfi_def_cfa_offset 48
	popq	%rbp
	.cfi_def_cfa_offset 40
	popq	%r12
	.cfi_def_cfa_offset 32
	popq	%r13
	.cfi_def_cfa_offset 24
	popq	%r14
	.cfi_def_cfa_offset 16
	popq	%r15
	.cfi_def_cfa_offset 8
	ret
.L600:
	.cfi_restore_state
	call	vcalloc.part.5
	.cfi_endproc
.LFE103:
	.size	array_clone, .-array_clone
	.section	.text.array_reverse,"ax",@progbits
	.p2align 4,,15
	.globl	array_reverse
	.type	array_reverse, @function
array_reverse:
.LFB108:
	.cfi_startproc
	pushq	%r15
	.cfi_def_cfa_offset 16
	.cfi_offset 15, -16
	pushq	%r14
	.cfi_def_cfa_offset 24
	.cfi_offset 14, -24
	pushq	%r13
	.cfi_def_cfa_offset 32
	.cfi_offset 13, -32
	pushq	%r12
	.cfi_def_cfa_offset 40
	.cfi_offset 12, -40
	movq	%rdi, %r13
	pushq	%rbp
	.cfi_def_cfa_offset 48
	.cfi_offset 6, -48
	pushq	%rbx
	.cfi_def_cfa_offset 56
	.cfi_offset 3, -56
	subq	$24, %rsp
	.cfi_def_cfa_offset 80
	movl	88(%rsp), %ebp
	cmpl	$1, %ebp
	jle	.L610
	movl	92(%rsp), %edi
	movl	96(%rsp), %eax
	movl	%edi, 4(%rsp)
	movl	%eax, (%rsp)
	imull	%eax, %edi
	testl	%edi, %edi
	jle	.L611
	movslq	%edi, %rdi
	movl	$1, %esi
	xorl	%r15d, %r15d
	call	calloc@PLT
	movslq	(%rsp), %rbx
	leal	-1(%rbp), %ecx
	movq	%rax, %r8
	movq	%rax, 8(%rsp)
	imull	%ebx, %ecx
	movl	%ebx, %r12d
	negl	%r12d
	movslq	%r12d, %r12
	movslq	%ecx, %rcx
	addq	80(%rsp), %rcx
	movq	%rcx, %r14
	.p2align 4,,10
	.p2align 3
.L607:
	movq	%r14, %rsi
	movq	%r8, %rdi
	movq	%rbx, %rdx
	call	memcpy@PLT
	addl	$1, %r15d
	movq	%rax, %r8
	addq	%r12, %r14
	addq	%rbx, %r8
	cmpl	%r15d, %ebp
	jne	.L607
	movq	8(%rsp), %rax
	movl	%ebp, 8(%r13)
	movq	%rax, 0(%r13)
	movl	4(%rsp), %eax
	movl	%eax, 12(%r13)
	movl	(%rsp), %eax
	movl	%eax, 16(%r13)
.L603:
	addq	$24, %rsp
	.cfi_remember_state
	.cfi_def_cfa_offset 56
	movq	%r13, %rax
	popq	%rbx
	.cfi_def_cfa_offset 48
	popq	%rbp
	.cfi_def_cfa_offset 40
	popq	%r12
	.cfi_def_cfa_offset 32
	popq	%r13
	.cfi_def_cfa_offset 24
	popq	%r14
	.cfi_def_cfa_offset 16
	popq	%r15
	.cfi_def_cfa_offset 8
	ret
	.p2align 4,,10
	.p2align 3
.L610:
	.cfi_restore_state
	movq	96(%rsp), %rax
	movdqu	80(%rsp), %xmm0
	movq	%rax, 16(%rdi)
	movups	%xmm0, (%rdi)
	jmp	.L603
.L611:
	call	vcalloc.part.5
	.cfi_endproc
.LFE108:
	.size	array_reverse, .-array_reverse
	.section	.text.make,"ax",@progbits
	.p2align 4,,15
	.globl	make
	.type	make, @function
make:
.LFB87:
	.cfi_startproc
	pushq	%r13
	.cfi_def_cfa_offset 16
	.cfi_offset 13, -16
	pushq	%r12
	.cfi_def_cfa_offset 24
	.cfi_offset 12, -24
	movl	%esi, %r13d
	pushq	%rbp
	.cfi_def_cfa_offset 32
	.cfi_offset 6, -32
	pushq	%rbx
	.cfi_def_cfa_offset 40
	.cfi_offset 3, -40
	movl	%ecx, %r12d
	movq	%rdi, %rbx
	subq	$8, %rsp
	.cfi_def_cfa_offset 48
	testl	%edx, %edx
	je	.L615
	movl	%edx, %edi
	movl	%edx, %ebp
	imull	%ecx, %edi
.L613:
	testl	%edi, %edi
	jle	.L617
	movslq	%edi, %rdi
	movl	$1, %esi
	call	calloc@PLT
	movl	%r13d, 8(%rbx)
	movq	%rax, (%rbx)
	movq	%rbx, %rax
	movl	%ebp, 12(%rbx)
	movl	%r12d, 16(%rbx)
	addq	$8, %rsp
	.cfi_remember_state
	.cfi_def_cfa_offset 40
	popq	%rbx
	.cfi_def_cfa_offset 32
	popq	%rbp
	.cfi_def_cfa_offset 24
	popq	%r12
	.cfi_def_cfa_offset 16
	popq	%r13
	.cfi_def_cfa_offset 8
	ret
	.p2align 4,,10
	.p2align 3
.L615:
	.cfi_restore_state
	movl	%ecx, %edi
	movl	$1, %ebp
	jmp	.L613
.L617:
	call	vcalloc.part.5
	.cfi_endproc
.LFE87:
	.size	make, .-make
	.section	.text.string_ustring,"ax",@progbits
	.p2align 4,,15
	.globl	string_ustring
	.type	string_ustring, @function
string_ustring:
.LFB318:
	.cfi_startproc
	pushq	%r15
	.cfi_def_cfa_offset 16
	.cfi_offset 15, -16
	pushq	%r14
	.cfi_def_cfa_offset 24
	.cfi_offset 14, -24
	pushq	%r13
	.cfi_def_cfa_offset 32
	.cfi_offset 13, -32
	pushq	%r12
	.cfi_def_cfa_offset 40
	.cfi_offset 12, -40
	pushq	%rbp
	.cfi_def_cfa_offset 48
	.cfi_offset 6, -48
	pushq	%rbx
	.cfi_def_cfa_offset 56
	.cfi_offset 3, -56
	subq	$104, %rsp
	.cfi_def_cfa_offset 160
	movq	%fs:40, %rax
	movq	%rax, 88(%rsp)
	xorl	%eax, %eax
	testl	%edx, %edx
	movq	%rdi, 8(%rsp)
	movq	%rsi, 32(%rsp)
	movq	%rdx, 40(%rsp)
	je	.L619
	leal	0(,%rdx,4), %edi
	movq	%rdx, %rbx
	testl	%edi, %edi
	jle	.L628
	movq	%rsi, %rbp
	movslq	%edi, %rdi
	movl	$1, %esi
	movl	%edx, %r12d
	call	calloc@PLT
	testl	%ebx, %ebx
	movq	%rax, 48(%rsp)
	movl	$0, 56(%rsp)
	movl	%ebx, 60(%rsp)
	movl	$4, 64(%rsp)
	movl	$0, 72(%rsp)
	jle	.L623
	leaq	28(%rsp), %r15
	leaq	32(%rsp), %r14
	xorl	%r13d, %r13d
	.p2align 4,,10
	.p2align 3
.L622:
	movslq	%r13d, %rdx
	movl	$-452984832, %ebx
	movl	%r13d, 28(%rsp)
	movzbl	0(%rbp,%rdx), %ecx
	leaq	16(%r14), %rdi
	movq	%r15, %rsi
	shrb	$3, %cl
	andl	$30, %ecx
	shrl	%cl, %ebx
	andl	$3, %ebx
	leal	1(%r13,%rbx), %r13d
	call	array_push
	addl	$1, 72(%rsp)
	cmpl	%r13d, %r12d
	jg	.L622
.L623:
	movq	8(%rsp), %rax
	movq	88(%rsp), %rsi
	xorq	%fs:40, %rsi
	movdqa	32(%rsp), %xmm0
	movups	%xmm0, (%rax)
	movdqa	48(%rsp), %xmm0
	movups	%xmm0, 16(%rax)
	movdqa	64(%rsp), %xmm0
	movups	%xmm0, 32(%rax)
	jne	.L629
	addq	$104, %rsp
	.cfi_remember_state
	.cfi_def_cfa_offset 56
	popq	%rbx
	.cfi_def_cfa_offset 48
	popq	%rbp
	.cfi_def_cfa_offset 40
	popq	%r12
	.cfi_def_cfa_offset 32
	popq	%r13
	.cfi_def_cfa_offset 24
	popq	%r14
	.cfi_def_cfa_offset 16
	popq	%r15
	.cfi_def_cfa_offset 8
	ret
	.p2align 4,,10
	.p2align 3
.L619:
	.cfi_restore_state
	movl	$1, %esi
	movl	$4, %edi
	call	calloc@PLT
	movq	%rax, 48(%rsp)
	movabsq	$4294967296, %rax
	movl	$4, 64(%rsp)
	movq	%rax, 56(%rsp)
	movl	$0, 72(%rsp)
	jmp	.L623
.L628:
	call	vcalloc.part.5
.L629:
	call	__stack_chk_fail@PLT
	.cfi_endproc
.LFE318:
	.size	string_ustring, .-string_ustring
	.section	.text.array_push_many,"ax",@progbits
	.p2align 4,,15
	.globl	array_push_many
	.type	array_push_many, @function
array_push_many:
.LFB107:
	.cfi_startproc
	pushq	%r15
	.cfi_def_cfa_offset 16
	.cfi_offset 15, -16
	pushq	%r14
	.cfi_def_cfa_offset 24
	.cfi_offset 14, -24
	pushq	%r13
	.cfi_def_cfa_offset 32
	.cfi_offset 13, -32
	pushq	%r12
	.cfi_def_cfa_offset 40
	.cfi_offset 12, -40
	pushq	%rbp
	.cfi_def_cfa_offset 48
	.cfi_offset 6, -48
	pushq	%rbx
	.cfi_def_cfa_offset 56
	.cfi_offset 3, -56
	movl	%edx, %ebp
	movq	%rdi, %rbx
	subq	$8, %rsp
	.cfi_def_cfa_offset 64
	movq	(%rdi), %r13
	cmpq	%rsi, %r13
	je	.L637
	movq	%rsi, %r12
	movl	8(%rdi), %esi
	addl	%edx, %esi
	call	array_ensure_cap
	movl	16(%rbx), %edx
	movl	8(%rbx), %edi
	movq	%r12, %rsi
	imull	%edx, %edi
	imull	%ebp, %edx
	movslq	%edi, %rdi
	addq	(%rbx), %rdi
	movslq	%edx, %rdx
	call	memcpy@PLT
.L634:
	addl	%ebp, 8(%rbx)
	addq	$8, %rsp
	.cfi_remember_state
	.cfi_def_cfa_offset 56
	popq	%rbx
	.cfi_def_cfa_offset 48
	popq	%rbp
	.cfi_def_cfa_offset 40
	popq	%r12
	.cfi_def_cfa_offset 32
	popq	%r13
	.cfi_def_cfa_offset 24
	popq	%r14
	.cfi_def_cfa_offset 16
	popq	%r15
	.cfi_def_cfa_offset 8
	ret
	.p2align 4,,10
	.p2align 3
.L637:
	.cfi_restore_state
	movl	12(%rdi), %edi
	imull	16(%rbx), %edi
	cmpl	$0, %edi
	je	.L635
	jle	.L633
	movslq	%edi, %rdi
	movq	%rdi, %r15
.L632:
	movl	$1, %esi
	call	calloc@PLT
	movl	8(%rbx), %r12d
	movq	%r15, %rdx
	movq	%r13, %rsi
	movq	%rax, %rdi
	movq	%rax, %r14
	call	memcpy@PLT
	leal	0(%rbp,%r12), %esi
	movq	%rbx, %rdi
	call	array_ensure_cap
	movl	16(%rbx), %edx
	movl	8(%rbx), %edi
	movq	%r14, %rsi
	imull	%edx, %edi
	imull	%ebp, %edx
	movslq	%edi, %rdi
	addq	(%rbx), %rdi
	movslq	%edx, %rdx
	call	memcpy@PLT
	jmp	.L634
	.p2align 4,,10
	.p2align 3
.L635:
	xorl	%r15d, %r15d
	movl	$1, %edi
	jmp	.L632
.L633:
	call	vcalloc.part.5
	.cfi_endproc
.LFE107:
	.size	array_push_many, .-array_push_many
	.section	.rodata.str1.1
.LC58:
	.string	"Probe overflow"
	.section	.text.map_meta_greater,"ax",@progbits
	.p2align 4,,15
	.globl	map_meta_greater
	.type	map_meta_greater, @function
map_meta_greater:
.LFB214:
	.cfi_startproc
	pushq	%r12
	.cfi_def_cfa_offset 16
	.cfi_offset 12, -16
	pushq	%rbp
	.cfi_def_cfa_offset 24
	.cfi_offset 6, -24
	movq	%rdi, %rbp
	pushq	%rbx
	.cfi_def_cfa_offset 32
	.cfi_offset 3, -32
	movq	40(%rdi), %rdi
	movl	%esi, %eax
	leaq	(%rdi,%rax,4), %r8
	movl	(%r8), %eax
	testl	%eax, %eax
	je	.L640
	.p2align 4,,10
	.p2align 3
.L639:
	cmpl	%eax, %edx
	jbe	.L641
	movl	%edx, (%r8)
	leal	1(%rsi), %edx
	addl	$2, %esi
	leaq	(%rdi,%rdx,4), %rdx
	movl	(%rdx), %r9d
	movl	%ecx, (%rdx)
	addl	_const_probe_inc(%rip), %eax
	movl	%r9d, %ecx
	movl	%eax, %edx
	movl	%esi, %eax
	leaq	(%rdi,%rax,4), %r8
	movl	(%r8), %eax
	testl	%eax, %eax
	jne	.L639
.L640:
	movl	%edx, (%r8)
	shrl	$24, %edx
	leal	1(%rsi), %eax
	leal	-1(%rdx), %ebx
	movl	%ecx, (%rdi,%rax,4)
	leal	(%rbx,%rbx), %eax
	cmpl	48(%rbp), %eax
	je	.L647
.L638:
	popq	%rbx
	.cfi_remember_state
	.cfi_def_cfa_offset 24
	popq	%rbp
	.cfi_def_cfa_offset 16
	popq	%r12
	.cfi_def_cfa_offset 8
	ret
	.p2align 4,,10
	.p2align 3
.L641:
	.cfi_restore_state
	leal	2(%rsi), %eax
	addl	_const_probe_inc(%rip), %edx
	leaq	(%rdi,%rax,4), %r8
	movq	%rax, %rsi
	movl	(%r8), %eax
	testl	%eax, %eax
	jne	.L639
	jmp	.L640
	.p2align 4,,10
	.p2align 3
.L647:
	movl	4(%rbp), %edx
	addl	$4, %eax
	movl	%eax, 48(%rbp)
	leal	2(%rax,%rdx), %r12d
	salq	$2, %r12
	movq	%r12, %rsi
	call	realloc@PLT
	pxor	%xmm0, %xmm0
	cmpl	$252, %ebx
	movq	%rax, 40(%rbp)
	movups	%xmm0, -16(%rax,%r12)
	jne	.L638
	leaq	.LC58(%rip), %rdi
	movl	$14, %esi
	call	v_panic
	.cfi_endproc
.LFE214:
	.size	map_meta_greater, .-map_meta_greater
	.section	.rodata.str1.1
.LC59:
	.string	"tos(): nil string"
	.section	.text.unlikely.tos.part.7,"ax",@progbits
	.type	tos.part.7, @function
tos.part.7:
.LFB537:
	.cfi_startproc
	leaq	.LC59(%rip), %rdi
	subq	$8, %rsp
	.cfi_def_cfa_offset 16
	movl	$17, %esi
	call	v_panic
	.cfi_endproc
.LFE537:
	.size	tos.part.7, .-tos.part.7
	.section	.text.tos,"ax",@progbits
	.p2align 4,,15
	.globl	tos
	.type	tos, @function
tos:
.LFB252:
	.cfi_startproc
	testq	%rdi, %rdi
	je	.L655
	movl	%esi, %edx
	movq	%rdi, %rax
	ret
.L655:
	subq	$8, %rsp
	.cfi_def_cfa_offset 16
	call	tos.part.7
	.cfi_endproc
.LFE252:
	.size	tos, .-tos
	.section	.rodata.str1.1
.LC60:
	.string	"{}"
.LC61:
	.string	"{"
.LC62:
	.string	"}"
	.section	.text.map_string_str,"ax",@progbits
	.p2align 4,,15
	.globl	map_string_str
	.type	map_string_str, @function
map_string_str:
.LFB225:
	.cfi_startproc
	pushq	%rbp
	.cfi_def_cfa_offset 16
	.cfi_offset 6, -16
	pushq	%rbx
	.cfi_def_cfa_offset 24
	.cfi_offset 3, -24
	subq	$72, %rsp
	.cfi_def_cfa_offset 96
	movq	%fs:40, %rax
	movq	%rax, 56(%rsp)
	xorl	%eax, %eax
	movl	148(%rsp), %eax
	testl	%eax, %eax
	jne	.L657
	leaq	.LC60(%rip), %rax
	movl	$2, %edx
.L658:
	movq	56(%rsp), %rcx
	xorq	%fs:40, %rcx
	jne	.L662
	addq	$72, %rsp
	.cfi_remember_state
	.cfi_def_cfa_offset 24
	popq	%rbx
	.cfi_def_cfa_offset 16
	popq	%rbp
	.cfi_def_cfa_offset 8
	ret
	.p2align 4,,10
	.p2align 3
.L657:
	.cfi_restore_state
	leaq	16(%rsp), %rbx
	movl	$1, %esi
	movl	$50, %edi
	call	calloc@PLT
	leaq	15(%rsp), %rbp
	leaq	.LC61(%rip), %rsi
	movl	$1, %edx
	movq	%rax, 16(%rsp)
	movq	%rbx, %rdi
	movabsq	$214748364800, %rax
	movq	%rax, 24(%rsp)
	movq	%rax, 40(%rsp)
	movl	$1, 32(%rsp)
	call	array_push_many
	movq	%rbp, %rsi
	movq	%rbx, %rdi
	movb	$10, 15(%rsp)
	call	array_push
	leaq	.LC62(%rip), %rsi
	movl	$1, %edx
	movq	%rbx, %rdi
	addl	$2, 40(%rsp)
	call	array_push_many
	movq	%rbp, %rsi
	movq	%rbx, %rdi
	movb	$10, 15(%rsp)
	call	array_push
	movq	%rbp, %rsi
	movq	%rbx, %rdi
	addl	$2, 40(%rsp)
	movb	$0, 15(%rsp)
	call	array_push
	movq	16(%rsp), %rax
	movl	40(%rsp), %edx
	testq	%rax, %rax
	jne	.L658
	call	tos.part.7
.L662:
	call	__stack_chk_fail@PLT
	.cfi_endproc
.LFE225:
	.size	map_string_str, .-map_string_str
	.section	.rodata.str1.1
.LC63:
	.string	"tos2: nil string"
	.section	.text.unlikely.tos2.part.8,"ax",@progbits
	.type	tos2.part.8, @function
tos2.part.8:
.LFB538:
	.cfi_startproc
	leaq	.LC63(%rip), %rdi
	subq	$8, %rsp
	.cfi_def_cfa_offset 16
	movl	$16, %esi
	call	v_panic
	.cfi_endproc
.LFE538:
	.size	tos2.part.8, .-tos2.part.8
	.section	.text.tos2,"ax",@progbits
	.p2align 4,,15
	.globl	tos2
	.type	tos2, @function
tos2:
.LFB254:
	.cfi_startproc
	testq	%rdi, %rdi
	pushq	%rbx
	.cfi_def_cfa_offset 16
	.cfi_offset 3, -16
	je	.L668
	movq	%rdi, %rbx
	call	strlen@PLT
	movl	%eax, %edx
	movq	%rbx, %rax
	popq	%rbx
	.cfi_remember_state
	.cfi_def_cfa_offset 8
	ret
.L668:
	.cfi_restore_state
	call	tos2.part.8
	.cfi_endproc
.LFE254:
	.size	tos2, .-tos2
	.section	.rodata.str1.8
	.align 8
.LC64:
	.string	"Use `string.is_space` instead of `string.is_white"
	.section	.text.byte_is_white,"ax",@progbits
	.p2align 4,,15
	.globl	byte_is_white
	.type	byte_is_white, @function
byte_is_white:
.LFB349:
	.cfi_startproc
	leaq	.LC64(%rip), %rdi
	subq	$8, %rsp
	.cfi_def_cfa_offset 16
	movl	$49, %esi
	call	v_panic
	.cfi_endproc
.LFE349:
	.size	byte_is_white, .-byte_is_white
	.section	.text.map_rehash,"ax",@progbits
	.p2align 4,,15
	.globl	map_rehash
	.type	map_rehash, @function
map_rehash:
.LFB217:
	.cfi_startproc
	pushq	%r13
	.cfi_def_cfa_offset 16
	.cfi_offset 13, -16
	pushq	%r12
	.cfi_def_cfa_offset 24
	.cfi_offset 12, -24
	pushq	%rbp
	.cfi_def_cfa_offset 32
	.cfi_offset 6, -32
	pushq	%rbx
	.cfi_def_cfa_offset 40
	.cfi_offset 3, -40
	movq	%rdi, %rbp
	subq	$8, %rsp
	.cfi_def_cfa_offset 48
	movl	48(%rdi), %eax
	addl	4(%rdi), %eax
	movq	40(%rdi), %rdi
	leal	8(,%rax,4), %ebx
	movslq	%ebx, %rbx
	movq	%rbx, %rsi
	call	realloc@PLT
	xorl	%esi, %esi
	movq	%rax, 40(%rbp)
	movq	%rbx, %rdx
	movq	%rax, %rdi
	call	memset@PLT
	movl	20(%rbp), %ecx
	testl	%ecx, %ecx
	je	.L671
	xorl	%r12d, %r12d
	.p2align 4,,10
	.p2align 3
.L684:
	movl	%r12d, %eax
	leaq	(%rax,%rax,2), %rdx
	movq	32(%rbp), %rax
	leaq	(%rax,%rdx,8), %rax
	movq	(%rax), %rdi
	testq	%rdi, %rdi
	je	.L673
	movslq	8(%rax), %rsi
	xorl	%edx, %edx
	call	wyhash
	movzbl	9(%rbp), %ecx
	movl	%eax, %r9d
	andl	4(%rbp), %r9d
	movl	_const_probe_inc(%rip), %r8d
	movq	40(%rbp), %rdi
	shrq	%cl, %rax
	andl	_const_hash_mask(%rip), %eax
	movl	%r9d, %esi
	orl	%r8d, %eax
	cmpl	(%rdi,%r9,4), %eax
	movl	%eax, %edx
	jnb	.L674
	.p2align 4,,10
	.p2align 3
.L675:
	leal	2(%rsi), %eax
	addl	%r8d, %edx
	leaq	(%rdi,%rax,4), %rcx
	movq	%rax, %rsi
	movl	(%rcx), %eax
	cmpl	%eax, %edx
	jb	.L675
.L676:
	testl	%eax, %eax
	movl	%r12d, %r9d
	je	.L678
	.p2align 4,,10
	.p2align 3
.L677:
	cmpl	%edx, %eax
	jnb	.L679
	movl	%edx, (%rcx)
	leal	1(%rsi), %edx
	addl	$2, %esi
	leaq	(%rdi,%rdx,4), %rdx
	movl	(%rdx), %r10d
	movl	%r9d, (%rdx)
	movl	_const_probe_inc(%rip), %r8d
	movl	%r10d, %r9d
	leal	(%rax,%r8), %edx
	movl	%esi, %eax
	leaq	(%rdi,%rax,4), %rcx
	movl	(%rcx), %eax
	testl	%eax, %eax
	jne	.L677
.L678:
	movl	%edx, (%rcx)
	shrl	$24, %edx
	leal	1(%rsi), %eax
	leal	-1(%rdx), %ebx
	movl	%r9d, (%rdi,%rax,4)
	leal	(%rbx,%rbx), %eax
	cmpl	48(%rbp), %eax
	je	.L682
.L697:
	movl	20(%rbp), %ecx
.L673:
	addl	$1, %r12d
	cmpl	%ecx, %r12d
	jb	.L684
.L671:
	addq	$8, %rsp
	.cfi_remember_state
	.cfi_def_cfa_offset 40
	popq	%rbx
	.cfi_def_cfa_offset 32
	popq	%rbp
	.cfi_def_cfa_offset 24
	popq	%r12
	.cfi_def_cfa_offset 16
	popq	%r13
	.cfi_def_cfa_offset 8
	ret
	.p2align 4,,10
	.p2align 3
.L679:
	.cfi_restore_state
	leal	2(%rsi), %eax
	addl	%r8d, %edx
	leaq	(%rdi,%rax,4), %rcx
	movq	%rax, %rsi
	movl	(%rcx), %eax
	testl	%eax, %eax
	jne	.L677
	jmp	.L678
	.p2align 4,,10
	.p2align 3
.L682:
	movl	4(%rbp), %edx
	addl	$4, %eax
	movl	%eax, 48(%rbp)
	leal	2(%rax,%rdx), %r13d
	salq	$2, %r13
	movq	%r13, %rsi
	call	realloc@PLT
	pxor	%xmm0, %xmm0
	cmpl	$252, %ebx
	movq	%rax, 40(%rbp)
	movups	%xmm0, -16(%rax,%r13)
	jne	.L697
	leaq	.LC58(%rip), %rdi
	movl	$14, %esi
	call	v_panic
	.p2align 4,,10
	.p2align 3
.L674:
	leaq	(%rdi,%r9,4), %rcx
	movl	(%rcx), %eax
	jmp	.L676
	.cfi_endproc
.LFE217:
	.size	map_rehash, .-map_rehash
	.section	.text.map_delete,"ax",@progbits
	.p2align 4,,15
	.globl	map_delete
	.type	map_delete, @function
map_delete:
.LFB221:
	.cfi_startproc
	pushq	%r15
	.cfi_def_cfa_offset 16
	.cfi_offset 15, -16
	pushq	%r14
	.cfi_def_cfa_offset 24
	.cfi_offset 14, -24
	pushq	%r13
	.cfi_def_cfa_offset 32
	.cfi_offset 13, -32
	pushq	%r12
	.cfi_def_cfa_offset 40
	.cfi_offset 12, -40
	pushq	%rbp
	.cfi_def_cfa_offset 48
	.cfi_offset 6, -48
	pushq	%rbx
	.cfi_def_cfa_offset 56
	.cfi_offset 3, -56
	movq	%rdi, %rbx
	subq	$40, %rsp
	.cfi_def_cfa_offset 96
	movq	%rdi, 24(%rsp)
	movq	%rsi, 8(%rsp)
	movq	%rsi, %rdi
	movslq	%edx, %rsi
	xorl	%edx, %edx
	call	wyhash
	movq	%rbx, %rsi
	movl	%eax, %edx
	andl	4(%rbx), %edx
	movzbl	9(%rsi), %ecx
	movl	_const_probe_inc(%rip), %r15d
	movq	40(%rsi), %r12
	movl	%edx, %ebx
	shrq	%cl, %rax
	andl	_const_hash_mask(%rip), %eax
	orl	%r15d, %eax
	cmpl	(%r12,%rdx,4), %eax
	movl	%eax, %ebp
	jnb	.L699
	.p2align 4,,10
	.p2align 3
.L700:
	leal	2(%rbx), %eax
	addl	%r15d, %ebp
	movq	%rax, %rbx
	movl	(%r12,%rax,4), %eax
	cmpl	%eax, %ebp
	jb	.L700
.L701:
	cmpl	%eax, %ebp
	jne	.L698
	movq	24(%rsp), %rax
	movq	32(%rax), %rax
	movq	%rax, 16(%rsp)
	jmp	.L707
	.p2align 4,,10
	.p2align 3
.L703:
	addl	%r15d, %ebp
	movl	%edx, %ebx
	cmpl	%ecx, %ebp
	jne	.L698
.L707:
	leal	1(%rbx), %eax
	movq	16(%rsp), %rdi
	movq	%rax, %r14
	movl	(%r12,%rax,4), %eax
	leaq	(%rax,%rax,2), %rax
	leaq	(%rdi,%rax,8), %r13
	movq	8(%rsp), %rdi
	movq	0(%r13), %rsi
	call	strcmp@PLT
	leal	2(%rbx), %ecx
	testl	%eax, %eax
	movq	%rcx, %rdx
	movl	(%r12,%rcx,4), %ecx
	jne	.L703
	cmpl	$33554431, %ecx
	ja	.L705
	jmp	.L708
	.p2align 4,,10
	.p2align 3
.L712:
	movl	%edx, %ebx
	movl	_const_probe_inc(%rip), %r15d
	movl	%eax, %edx
	leal	1(%rbx), %r14d
.L705:
	subl	%r15d, %ecx
	movl	%ebx, %eax
	movl	%r14d, %r8d
	movl	%ecx, (%r12,%rax,4)
	leal	3(%rbx), %eax
	leal	2(%rdx), %ecx
	movl	(%r12,%rax,4), %eax
	movl	%eax, (%r12,%r8,4)
	movq	%rcx, %rax
	movl	(%r12,%rcx,4), %ecx
	cmpl	$33554431, %ecx
	ja	.L712
.L704:
	movq	24(%rsp), %rsi
	pxor	%xmm0, %xmm0
	subl	$1, 52(%rsi)
	movl	$0, (%r12,%rdx,4)
	addl	$1, 24(%rsi)
	movq	$0, 16(%r13)
	movups	%xmm0, 0(%r13)
	movl	20(%rsi), %eax
	cmpl	$32, %eax
	jbe	.L698
	shrl	%eax
	cmpl	%eax, 24(%rsi)
	jnb	.L713
.L698:
	addq	$40, %rsp
	.cfi_remember_state
	.cfi_def_cfa_offset 56
	popq	%rbx
	.cfi_def_cfa_offset 48
	popq	%rbp
	.cfi_def_cfa_offset 40
	popq	%r12
	.cfi_def_cfa_offset 32
	popq	%r13
	.cfi_def_cfa_offset 24
	popq	%r14
	.cfi_def_cfa_offset 16
	popq	%r15
	.cfi_def_cfa_offset 8
	ret
	.p2align 4,,10
	.p2align 3
.L713:
	.cfi_restore_state
	leaq	16(%rsi), %rdi
	movq	%rsi, %rbx
	call	DenseArray_zeros_to_end
	movq	%rbx, %rdi
	call	map_rehash
	movl	$0, 24(%rbx)
	jmp	.L698
	.p2align 4,,10
	.p2align 3
.L699:
	movl	(%r12,%rdx,4), %eax
	jmp	.L701
	.p2align 4,,10
	.p2align 3
.L708:
	movl	%ebx, %edx
	jmp	.L704
	.cfi_endproc
.LFE221:
	.size	map_delete, .-map_delete
	.section	.text.map_cached_rehash,"ax",@progbits
	.p2align 4,,15
	.globl	map_cached_rehash
	.type	map_cached_rehash, @function
map_cached_rehash:
.LFB218:
	.cfi_startproc
	pushq	%r15
	.cfi_def_cfa_offset 16
	.cfi_offset 15, -16
	pushq	%r14
	.cfi_def_cfa_offset 24
	.cfi_offset 14, -24
	pushq	%r13
	.cfi_def_cfa_offset 32
	.cfi_offset 13, -32
	pushq	%r12
	.cfi_def_cfa_offset 40
	.cfi_offset 12, -40
	movq	%rdi, %r12
	pushq	%rbp
	.cfi_def_cfa_offset 48
	.cfi_offset 6, -48
	pushq	%rbx
	.cfi_def_cfa_offset 56
	.cfi_offset 3, -56
	subq	$8, %rsp
	.cfi_def_cfa_offset 64
	movl	48(%rdi), %r14d
	movl	4(%rdi), %eax
	movq	40(%rdi), %r13
	addl	%r14d, %eax
	leal	8(,%rax,4), %edi
	testl	%edi, %edi
	jle	.L733
	movl	%esi, %ebx
	movslq	%edi, %rdi
	movl	$1, %esi
	call	calloc@PLT
	addl	%ebx, %r14d
	movq	%rax, 40(%r12)
	xorl	%ebp, %ebp
	.p2align 4,,10
	.p2align 3
.L724:
	movl	%ebp, %eax
	movl	0(%r13,%rax,4), %eax
	testl	%eax, %eax
	je	.L716
	movl	%eax, %edx
	movl	4(%r12), %esi
	movl	%ebp, %ebx
	shrl	$24, %edx
	movq	40(%r12), %rdi
	movl	_const_probe_inc(%rip), %r8d
	leal	-2(%rdx,%rdx), %edx
	movl	%esi, %ecx
	subl	%edx, %ebx
	shrl	%ecx
	movl	%ebx, %edx
	movl	%eax, %ebx
	andl	_const_hash_mask(%rip), %eax
	andl	%ecx, %edx
	movzbl	9(%r12), %ecx
	orl	%r8d, %eax
	sall	%cl, %ebx
	orl	%ebx, %edx
	andl	%edx, %esi
	movl	%esi, %edx
	leaq	(%rdi,%rdx,4), %rcx
	movl	(%rcx), %edx
	cmpl	%edx, %eax
	jnb	.L717
	.p2align 4,,10
	.p2align 3
.L718:
	leal	2(%rsi), %edx
	addl	%r8d, %eax
	leaq	(%rdi,%rdx,4), %rcx
	movq	%rdx, %rsi
	movl	(%rcx), %edx
	cmpl	%edx, %eax
	jb	.L718
.L717:
	leal	1(%rbp), %r9d
	testl	%edx, %edx
	movl	0(%r13,%r9,4), %r9d
	je	.L720
	.p2align 4,,10
	.p2align 3
.L719:
	cmpl	%eax, %edx
	jnb	.L721
	movl	%eax, (%rcx)
	leal	1(%rsi), %eax
	addl	$2, %esi
	leaq	(%rdi,%rax,4), %rax
	movl	(%rax), %r10d
	movl	%r9d, (%rax)
	movl	_const_probe_inc(%rip), %r8d
	movl	%r10d, %r9d
	leal	(%rdx,%r8), %eax
	movl	%esi, %edx
	leaq	(%rdi,%rdx,4), %rcx
	movl	(%rcx), %edx
	testl	%edx, %edx
	jne	.L719
.L720:
	movl	%eax, (%rcx)
	shrl	$24, %eax
	leal	1(%rsi), %edx
	leal	-1(%rax), %ebx
	movl	%r9d, (%rdi,%rdx,4)
	leal	(%rbx,%rbx), %eax
	cmpl	48(%r12), %eax
	je	.L734
.L716:
	addl	$2, %ebp
	cmpl	%r14d, %ebp
	jbe	.L724
	addq	$8, %rsp
	.cfi_remember_state
	.cfi_def_cfa_offset 56
	movq	%r13, %rdi
	popq	%rbx
	.cfi_def_cfa_offset 48
	popq	%rbp
	.cfi_def_cfa_offset 40
	popq	%r12
	.cfi_def_cfa_offset 32
	popq	%r13
	.cfi_def_cfa_offset 24
	popq	%r14
	.cfi_def_cfa_offset 16
	popq	%r15
	.cfi_def_cfa_offset 8
	jmp	free@PLT
	.p2align 4,,10
	.p2align 3
.L721:
	.cfi_restore_state
	leal	2(%rsi), %edx
	addl	%r8d, %eax
	leaq	(%rdi,%rdx,4), %rcx
	movq	%rdx, %rsi
	movl	(%rcx), %edx
	testl	%edx, %edx
	jne	.L719
	jmp	.L720
	.p2align 4,,10
	.p2align 3
.L734:
	movl	4(%r12), %edx
	addl	$4, %eax
	movl	%eax, 48(%r12)
	leal	2(%rax,%rdx), %r15d
	salq	$2, %r15
	movq	%r15, %rsi
	call	realloc@PLT
	pxor	%xmm0, %xmm0
	cmpl	$252, %ebx
	movq	%rax, 40(%r12)
	movups	%xmm0, -16(%rax,%r15)
	jne	.L716
	leaq	.LC58(%rip), %rdi
	movl	$14, %esi
	call	v_panic
.L733:
	call	vcalloc.part.5
	.cfi_endproc
.LFE218:
	.size	map_cached_rehash, .-map_cached_rehash
	.section	.text.map_expand,"ax",@progbits
	.p2align 4,,15
	.globl	map_expand
	.type	map_expand, @function
map_expand:
.LFB216:
	.cfi_startproc
	movl	4(%rdi), %esi
	cmpb	$0, 8(%rdi)
	pushq	%rbx
	.cfi_def_cfa_offset 16
	.cfi_offset 3, -16
	movq	%rdi, %rbx
	leal	2(%rsi,%rsi), %eax
	movl	%eax, 4(%rdi)
	je	.L739
	call	map_cached_rehash
	subb	$1, 8(%rbx)
	popq	%rbx
	.cfi_remember_state
	.cfi_def_cfa_offset 8
	ret
	.p2align 4,,10
	.p2align 3
.L739:
	.cfi_restore_state
	addb	$16, 9(%rdi)
	movb	$16, 8(%rdi)
	call	map_rehash
	subb	$1, 8(%rbx)
	popq	%rbx
	.cfi_def_cfa_offset 8
	ret
	.cfi_endproc
.LFE216:
	.size	map_expand, .-map_expand
	.section	.text._STR,"ax",@progbits
	.p2align 4,,15
	.globl	_STR
	.type	_STR, @function
_STR:
.LFB84:
	.cfi_startproc
	pushq	%r12
	.cfi_def_cfa_offset 16
	.cfi_offset 12, -16
	pushq	%rbp
	.cfi_def_cfa_offset 24
	.cfi_offset 6, -24
	movq	%rdi, %rbp
	pushq	%rbx
	.cfi_def_cfa_offset 32
	.cfi_offset 3, -32
	subq	$208, %rsp
	.cfi_def_cfa_offset 240
	testb	%al, %al
	movq	%rsi, 40(%rsp)
	movq	%rdx, 48(%rsp)
	movq	%rcx, 56(%rsp)
	movq	%r8, 64(%rsp)
	movq	%r9, 72(%rsp)
	je	.L741
	movaps	%xmm0, 80(%rsp)
	movaps	%xmm1, 96(%rsp)
	movaps	%xmm2, 112(%rsp)
	movaps	%xmm3, 128(%rsp)
	movaps	%xmm4, 144(%rsp)
	movaps	%xmm5, 160(%rsp)
	movaps	%xmm6, 176(%rsp)
	movaps	%xmm7, 192(%rsp)
.L741:
	movq	%fs:40, %rax
	movq	%rax, 24(%rsp)
	xorl	%eax, %eax
	leaq	240(%rsp), %rax
	movq	%rsp, %r12
	movq	%rbp, %r8
	movq	%r12, %r9
	movq	$-1, %rcx
	movl	$1, %edx
	movq	%rax, 8(%rsp)
	leaq	32(%rsp), %rax
	xorl	%esi, %esi
	xorl	%edi, %edi
	movl	$8, (%rsp)
	movl	$48, 4(%rsp)
	movq	%rax, 16(%rsp)
	call	__vsnprintf_chk@PLT
	leal	1(%rax), %edi
	movslq	%edi, %rdi
	call	malloc@PLT
	movq	%rax, %rbx
	leaq	240(%rsp), %rax
	movq	$-1, %rdx
	movq	%r12, %r8
	movq	%rbp, %rcx
	movl	$1, %esi
	movq	%rax, 8(%rsp)
	leaq	32(%rsp), %rax
	movq	%rbx, %rdi
	movl	$8, (%rsp)
	movl	$48, 4(%rsp)
	movq	%rax, 16(%rsp)
	call	__vsprintf_chk@PLT
	movq	%rbx, %rdx
.L742:
	movl	(%rdx), %ecx
	addq	$4, %rdx
	leal	-16843009(%rcx), %eax
	notl	%ecx
	andl	%ecx, %eax
	andl	$-2139062144, %eax
	je	.L742
	movl	%eax, %ecx
	shrl	$16, %ecx
	testl	$32896, %eax
	cmove	%ecx, %eax
	leaq	2(%rdx), %rcx
	movl	%eax, %esi
	cmove	%rcx, %rdx
	addb	%al, %sil
	movq	%rbx, %rax
	sbbq	$3, %rdx
	subl	%ebx, %edx
	movq	24(%rsp), %rsi
	xorq	%fs:40, %rsi
	jne	.L748
	addq	$208, %rsp
	.cfi_remember_state
	.cfi_def_cfa_offset 32
	popq	%rbx
	.cfi_def_cfa_offset 24
	popq	%rbp
	.cfi_def_cfa_offset 16
	popq	%r12
	.cfi_def_cfa_offset 8
	ret
.L748:
	.cfi_restore_state
	call	__stack_chk_fail@PLT
	.cfi_endproc
.LFE84:
	.size	_STR, .-_STR
	.section	.rodata.str1.8
	.align 8
.LC65:
	.string	"array.repeat: count is negative: %d"
	.section	.text.array_repeat,"ax",@progbits
	.p2align 4,,15
	.globl	array_repeat
	.type	array_repeat, @function
array_repeat:
.LFB91:
	.cfi_startproc
	pushq	%r15
	.cfi_def_cfa_offset 16
	.cfi_offset 15, -16
	pushq	%r14
	.cfi_def_cfa_offset 24
	.cfi_offset 14, -24
	pushq	%r13
	.cfi_def_cfa_offset 32
	.cfi_offset 13, -32
	pushq	%r12
	.cfi_def_cfa_offset 40
	.cfi_offset 12, -40
	pushq	%rbp
	.cfi_def_cfa_offset 48
	.cfi_offset 6, -48
	pushq	%rbx
	.cfi_def_cfa_offset 56
	.cfi_offset 3, -56
	movl	%esi, %ebp
	subq	$24, %rsp
	.cfi_def_cfa_offset 80
	testl	%esi, %esi
	movl	88(%rsp), %ebx
	movl	96(%rsp), %r14d
	js	.L761
	movl	%esi, %eax
	movq	%rdi, %r13
	imull	%ebx, %eax
	movl	%eax, %edi
	movl	%eax, 4(%rsp)
	imull	%r14d, %edi
	testl	%edi, %edi
	cmove	%r14d, %edi
	testl	%edi, %edi
	jle	.L762
	movslq	%edi, %rdi
	movl	$1, %esi
	call	calloc@PLT
	testl	%ebp, %ebp
	movq	%rax, 8(%rsp)
	je	.L753
	imull	%r14d, %ebx
	movq	80(%rsp), %r12
	movq	%rax, %r8
	xorl	%r15d, %r15d
	movslq	%ebx, %rbx
	.p2align 4,,10
	.p2align 3
.L754:
	movq	%r8, %rdi
	movq	%rbx, %rdx
	movq	%r12, %rsi
	call	memcpy@PLT
	addl	$1, %r15d
	movq	%rax, %r8
	addq	%rbx, %r8
	cmpl	%r15d, %ebp
	jne	.L754
.L753:
	movq	8(%rsp), %rax
	movl	%r14d, 16(%r13)
	movq	%rax, 0(%r13)
	movl	4(%rsp), %eax
	movl	%eax, 8(%r13)
	movl	%eax, 12(%r13)
	addq	$24, %rsp
	.cfi_remember_state
	.cfi_def_cfa_offset 56
	popq	%rbx
	.cfi_def_cfa_offset 48
	movq	%r13, %rax
	popq	%rbp
	.cfi_def_cfa_offset 40
	popq	%r12
	.cfi_def_cfa_offset 32
	popq	%r13
	.cfi_def_cfa_offset 24
	popq	%r14
	.cfi_def_cfa_offset 16
	popq	%r15
	.cfi_def_cfa_offset 8
	ret
.L761:
	.cfi_restore_state
	leaq	.LC65(%rip), %rdi
	xorl	%eax, %eax
	call	_STR
	movq	%rdx, %rsi
	movq	%rax, %rdi
	call	v_panic
.L762:
	call	vcalloc.part.5
	.cfi_endproc
.LFE91:
	.size	array_repeat, .-array_repeat
	.section	.rodata.str1.8
	.align 8
.LC66:
	.string	"array.insert: index out of range (i == %d, a.len == %d)"
	.section	.text.array_insert,"ax",@progbits
	.p2align 4,,15
	.globl	array_insert
	.type	array_insert, @function
array_insert:
.LFB93:
	.cfi_startproc
	pushq	%r14
	.cfi_def_cfa_offset 16
	.cfi_offset 14, -16
	pushq	%r13
	.cfi_def_cfa_offset 24
	.cfi_offset 13, -24
	movl	%esi, %r13d
	testl	%r13d, %r13d
	pushq	%r12
	.cfi_def_cfa_offset 32
	.cfi_offset 12, -32
	pushq	%rbp
	.cfi_def_cfa_offset 40
	.cfi_offset 6, -40
	pushq	%rbx
	.cfi_def_cfa_offset 48
	.cfi_offset 3, -48
	movl	8(%rdi), %esi
	js	.L764
	cmpl	%esi, %r13d
	jg	.L764
	movq	%rdi, %rbx
	addl	$1, %esi
	movq	%rdx, %r12
	call	array_ensure_cap
	movl	16(%rbx), %ebp
	movl	8(%rbx), %edx
	movl	%r13d, %eax
	movq	(%rbx), %rdi
	imull	%ebp, %eax
	subl	%r13d, %edx
	imull	%ebp, %edx
	movslq	%eax, %r14
	addl	%ebp, %eax
	leaq	(%rdi,%r14), %rsi
	cltq
	movslq	%edx, %rdx
	addq	%rax, %rdi
	call	memmove@PLT
	movq	(%rbx), %rdi
	movslq	%ebp, %rdx
	movq	%r12, %rsi
	addq	%r14, %rdi
	call	memcpy@PLT
	addl	$1, 8(%rbx)
	popq	%rbx
	.cfi_remember_state
	.cfi_def_cfa_offset 40
	popq	%rbp
	.cfi_def_cfa_offset 32
	popq	%r12
	.cfi_def_cfa_offset 24
	popq	%r13
	.cfi_def_cfa_offset 16
	popq	%r14
	.cfi_def_cfa_offset 8
	ret
.L764:
	.cfi_restore_state
	leaq	.LC66(%rip), %rdi
	movl	%esi, %edx
	xorl	%eax, %eax
	movl	%r13d, %esi
	call	_STR
	movq	%rdx, %rsi
	movq	%rax, %rdi
	call	v_panic
	.cfi_endproc
.LFE93:
	.size	array_insert, .-array_insert
	.section	.rodata.str1.8
	.align 8
.LC67:
	.string	"array.delete: index out of range (i == %d, a.len == %d)"
	.section	.text.array_delete,"ax",@progbits
	.p2align 4,,15
	.globl	array_delete
	.type	array_delete, @function
array_delete:
.LFB95:
	.cfi_startproc
	testl	%esi, %esi
	pushq	%rbx
	.cfi_def_cfa_offset 16
	.cfi_offset 3, -16
	movl	8(%rdi), %edx
	js	.L768
	cmpl	%edx, %esi
	jge	.L768
	movl	16(%rdi), %ecx
	leal	1(%rsi), %eax
	subl	%esi, %edx
	movq	%rdi, %rbx
	movq	(%rdi), %rdi
	imull	%ecx, %eax
	imull	%ecx, %edx
	movslq	%eax, %rsi
	subl	%ecx, %eax
	cltq
	addq	%rdi, %rsi
	movslq	%edx, %rdx
	addq	%rax, %rdi
	call	memmove@PLT
	subl	$1, 8(%rbx)
	popq	%rbx
	.cfi_remember_state
	.cfi_def_cfa_offset 8
	ret
.L768:
	.cfi_restore_state
	leaq	.LC67(%rip), %rdi
	xorl	%eax, %eax
	call	_STR
	movq	%rdx, %rsi
	movq	%rax, %rdi
	call	v_panic
	.cfi_endproc
.LFE95:
	.size	array_delete, .-array_delete
	.section	.rodata.str1.8
	.align 8
.LC68:
	.string	"array.get: index out of range (i == %d, a.len == %d)"
	.section	.text.array_get,"ax",@progbits
	.p2align 4,,15
	.globl	array_get
	.type	array_get, @function
array_get:
.LFB98:
	.cfi_startproc
	subq	$8, %rsp
	.cfi_def_cfa_offset 16
	movl	24(%rsp), %edx
	cmpl	%edx, %edi
	jge	.L774
	testl	%edi, %edi
	js	.L774
	imull	32(%rsp), %edi
	movslq	%edi, %rax
	addq	16(%rsp), %rax
	addq	$8, %rsp
	.cfi_remember_state
	.cfi_def_cfa_offset 8
	ret
.L774:
	.cfi_restore_state
	movl	%edi, %esi
	leaq	.LC68(%rip), %rdi
	xorl	%eax, %eax
	call	_STR
	movq	%rdx, %rsi
	movq	%rax, %rdi
	call	v_panic
	.cfi_endproc
.LFE98:
	.size	array_get, .-array_get
	.section	.text.string_ustring_tmp,"ax",@progbits
	.p2align 4,,15
	.globl	string_ustring_tmp
	.type	string_ustring_tmp, @function
string_ustring_tmp:
.LFB319:
	.cfi_startproc
	pushq	%r15
	.cfi_def_cfa_offset 16
	.cfi_offset 15, -16
	pushq	%r14
	.cfi_def_cfa_offset 24
	.cfi_offset 14, -24
	pushq	%r13
	.cfi_def_cfa_offset 32
	.cfi_offset 13, -32
	pushq	%r12
	.cfi_def_cfa_offset 40
	.cfi_offset 12, -40
	movq	%rsi, %r12
	pushq	%rbp
	.cfi_def_cfa_offset 48
	.cfi_offset 6, -48
	pushq	%rbx
	.cfi_def_cfa_offset 56
	.cfi_offset 3, -56
	movl	%edx, %ebp
	subq	$88, %rsp
	.cfi_def_cfa_offset 144
	movl	8+g_ustring_runes(%rip), %eax
	movq	%rdi, 24(%rsp)
	movq	%rdx, 16(%rsp)
	testl	%eax, %eax
	je	.L777
	movl	12+g_ustring_runes(%rip), %eax
	movq	g_ustring_runes(%rip), %r13
	movl	%eax, 12(%rsp)
	movl	16+g_ustring_runes(%rip), %eax
	movl	%eax, 8(%rsp)
.L778:
	movq	16+g_ustring_runes(%rip), %rax
	testl	%edx, %edx
	movq	%r12, 32(%rsp)
	movdqu	g_ustring_runes(%rip), %xmm0
	movq	%rdx, 40(%rsp)
	movaps	%xmm0, 48(%rsp)
	movq	%rax, 64(%rsp)
	jle	.L781
	xorl	%r14d, %r14d
	xorl	%r15d, %r15d
	.p2align 4,,10
	.p2align 3
.L780:
	movslq	%r14d, %rax
	subq	$8, %rsp
	.cfi_def_cfa_offset 152
	movl	$-452984832, %ebx
	movzbl	(%r12,%rax), %ecx
	movl	20(%rsp), %eax
	movl	%r15d, %edi
	movq	%r13, 56(%rsp)
	movl	%ebp, 64(%rsp)
	addl	$1, %r15d
	movl	%eax, 68(%rsp)
	movl	16(%rsp), %eax
	shrb	$3, %cl
	andl	$30, %ecx
	movl	%eax, 72(%rsp)
	shrl	%cl, %ebx
	pushq	72(%rsp)
	.cfi_def_cfa_offset 160
	pushq	72(%rsp)
	.cfi_def_cfa_offset 168
	pushq	%r13
	.cfi_def_cfa_offset 176
	andl	$3, %ebx
	call	array_get
	movl	%r14d, (%rax)
	leal	1(%r14,%rbx), %r14d
	addq	$32, %rsp
	.cfi_def_cfa_offset 144
	cmpl	%r14d, %ebp
	jg	.L780
	movq	16(%rsp), %rax
.L779:
	movl	%eax, 40(%rsp)
	movl	%eax, 56(%rsp)
	movl	12(%rsp), %eax
	movq	%r12, 32(%rsp)
	movdqa	32(%rsp), %xmm0
	movq	%r13, 48(%rsp)
	movl	%r15d, 72(%rsp)
	movl	%eax, 60(%rsp)
	movl	8(%rsp), %eax
	movl	%eax, 64(%rsp)
	movq	24(%rsp), %rax
	movups	%xmm0, (%rax)
	movdqa	48(%rsp), %xmm0
	movups	%xmm0, 16(%rax)
	movdqa	64(%rsp), %xmm0
	movups	%xmm0, 32(%rax)
	addq	$88, %rsp
	.cfi_remember_state
	.cfi_def_cfa_offset 56
	popq	%rbx
	.cfi_def_cfa_offset 48
	popq	%rbp
	.cfi_def_cfa_offset 40
	popq	%r12
	.cfi_def_cfa_offset 32
	popq	%r13
	.cfi_def_cfa_offset 24
	popq	%r14
	.cfi_def_cfa_offset 16
	popq	%r15
	.cfi_def_cfa_offset 8
	ret
	.p2align 4,,10
	.p2align 3
.L777:
	.cfi_restore_state
	movl	$1, %esi
	movl	$512, %edi
	call	calloc@PLT
	movq	%rax, %r13
	movq	%rax, g_ustring_runes(%rip)
	movabsq	$549755813888, %rax
	movq	%rax, 8+g_ustring_runes(%rip)
	movl	$4, 16+g_ustring_runes(%rip)
	movl	$4, 8(%rsp)
	movl	$128, 12(%rsp)
	movq	16(%rsp), %rdx
	jmp	.L778
	.p2align 4,,10
	.p2align 3
.L781:
	xorl	%r15d, %r15d
	movq	%rdx, %rax
	jmp	.L779
	.cfi_endproc
.LFE319:
	.size	string_ustring_tmp, .-string_ustring_tmp
	.section	.rodata.str1.8
	.align 8
.LC69:
	.string	"array.slice: invalid slice index (%d > %d)"
	.align 8
.LC70:
	.string	"array.slice: slice bounds out of range (%d >= %d)"
	.align 8
.LC71:
	.string	"array.slice: slice bounds out of range (%d < 0)"
	.section	.text.array_slice,"ax",@progbits
	.p2align 4,,15
	.globl	array_slice
	.type	array_slice, @function
array_slice:
.LFB101:
	.cfi_startproc
	movl	%edx, %ecx
	subq	$8, %rsp
	.cfi_def_cfa_offset 16
	cmpl	%esi, %ecx
	movl	24(%rsp), %edx
	movl	32(%rsp), %eax
	jl	.L790
	cmpl	%edx, %ecx
	jg	.L791
	testl	%esi, %esi
	js	.L792
	movl	%ecx, %edx
	movl	%eax, 16(%rdi)
	subl	%esi, %edx
	imull	%eax, %esi
	movl	%edx, 8(%rdi)
	movl	%edx, 12(%rdi)
	movq	%rdi, %rax
	movslq	%esi, %rcx
	addq	16(%rsp), %rcx
	movq	%rcx, (%rdi)
	addq	$8, %rsp
	.cfi_remember_state
	.cfi_def_cfa_offset 8
	ret
.L790:
	.cfi_restore_state
	leaq	.LC69(%rip), %rdi
	movl	%ecx, %edx
.L789:
	xorl	%eax, %eax
	call	_STR
	movq	%rdx, %rsi
	movq	%rax, %rdi
	call	v_panic
.L792:
	leaq	.LC71(%rip), %rdi
	xorl	%eax, %eax
	call	_STR
	movq	%rdx, %rsi
	movq	%rax, %rdi
	call	v_panic
.L791:
	movl	%ecx, %esi
	leaq	.LC70(%rip), %rdi
	jmp	.L789
	.cfi_endproc
.LFE101:
	.size	array_slice, .-array_slice
	.section	.text.array_slice_clone,"ax",@progbits
	.p2align 4,,15
	.globl	array_slice_clone
	.type	array_slice_clone, @function
array_slice_clone:
.LFB104:
	.cfi_startproc
	cmpl	%edx, %ecx
	pushq	%r14
	.cfi_def_cfa_offset 16
	.cfi_offset 14, -16
	movl	%edx, %eax
	pushq	%r13
	.cfi_def_cfa_offset 24
	.cfi_offset 13, -24
	pushq	%r12
	.cfi_def_cfa_offset 32
	.cfi_offset 12, -32
	pushq	%rbp
	.cfi_def_cfa_offset 40
	.cfi_offset 6, -40
	pushq	%rbx
	.cfi_def_cfa_offset 48
	.cfi_offset 3, -48
	jl	.L802
	movl	8(%rsi), %edx
	cmpl	%ecx, %edx
	jl	.L803
	testl	%eax, %eax
	js	.L804
	movl	16(%rsi), %r13d
	subl	%eax, %ecx
	movq	%rdi, %r12
	movl	%ecx, %ebp
	movl	%r13d, %edi
	imull	%r13d, %eax
	imull	%ecx, %edi
	movslq	%eax, %rbx
	addq	(%rsi), %rbx
	cmpl	$0, %edi
	je	.L799
	jle	.L798
	movslq	%edi, %rdi
	movq	%rdi, %r14
.L797:
	movl	$1, %esi
	call	calloc@PLT
	movq	%r14, %rdx
	movq	%rbx, %rsi
	movq	%rax, %rdi
	call	memcpy@PLT
	movl	%ebp, 8(%r12)
	movq	%rax, (%r12)
	movq	%r12, %rax
	movl	%ebp, 12(%r12)
	movl	%r13d, 16(%r12)
	popq	%rbx
	.cfi_remember_state
	.cfi_def_cfa_offset 40
	popq	%rbp
	.cfi_def_cfa_offset 32
	popq	%r12
	.cfi_def_cfa_offset 24
	popq	%r13
	.cfi_def_cfa_offset 16
	popq	%r14
	.cfi_def_cfa_offset 8
	ret
	.p2align 4,,10
	.p2align 3
.L799:
	.cfi_restore_state
	xorl	%r14d, %r14d
	movl	$1, %edi
	jmp	.L797
.L798:
	call	vcalloc.part.5
.L804:
	leaq	.LC71(%rip), %rdi
	movl	%eax, %esi
	xorl	%eax, %eax
	call	_STR
	movq	%rdx, %rsi
	movq	%rax, %rdi
	call	v_panic
.L803:
	leaq	.LC70(%rip), %rdi
	movl	%ecx, %esi
.L801:
	xorl	%eax, %eax
	call	_STR
	movq	%rdx, %rsi
	movq	%rax, %rdi
	call	v_panic
.L802:
	movl	%ecx, %edx
	movl	%eax, %esi
	leaq	.LC69(%rip), %rdi
	jmp	.L801
	.cfi_endproc
.LFE104:
	.size	array_slice_clone, .-array_slice_clone
	.section	.rodata.str1.8
	.align 8
.LC72:
	.string	"array.set: index out of range (i == %d, a.len == %d)"
	.section	.text.array_set,"ax",@progbits
	.p2align 4,,15
	.globl	array_set
	.type	array_set, @function
array_set:
.LFB105:
	.cfi_startproc
	testl	%esi, %esi
	movq	%rdx, %rcx
	movl	8(%rdi), %edx
	js	.L806
	cmpl	%edx, %esi
	jge	.L806
	movslq	16(%rdi), %rdx
	imull	%edx, %esi
	movslq	%esi, %rax
	addq	(%rdi), %rax
	movq	%rcx, %rsi
	movq	%rax, %rdi
	jmp	memcpy@PLT
.L806:
	leaq	.LC72(%rip), %rdi
	subq	$8, %rsp
	.cfi_def_cfa_offset 16
	xorl	%eax, %eax
	call	_STR
	movq	%rdx, %rsi
	movq	%rax, %rdi
	call	v_panic
	.cfi_endproc
.LFE105:
	.size	array_set, .-array_set
	.section	.text.map_keys,"ax",@progbits
	.p2align 4,,15
	.globl	map_keys
	.type	map_keys, @function
map_keys:
.LFB222:
	.cfi_startproc
	pushq	%r15
	.cfi_def_cfa_offset 16
	.cfi_offset 15, -16
	pushq	%r14
	.cfi_def_cfa_offset 24
	.cfi_offset 14, -24
	movl	$16, %ecx
	pushq	%r13
	.cfi_def_cfa_offset 32
	.cfi_offset 13, -32
	pushq	%r12
	.cfi_def_cfa_offset 40
	.cfi_offset 12, -40
	movq	%rdi, %r12
	pushq	%rbp
	.cfi_def_cfa_offset 48
	.cfi_offset 6, -48
	pushq	%rbx
	.cfi_def_cfa_offset 56
	.cfi_offset 3, -56
	movq	%rsi, %r14
	movl	$1, %edx
	subq	$120, %rsp
	.cfi_def_cfa_offset 176
	movl	52(%rsi), %ebx
	movl	$1, %esi
	movq	%fs:40, %rax
	movq	%rax, 104(%rsp)
	xorl	%eax, %eax
	leaq	32(%rsp), %rdi
	leaq	.LC37(%rip), %rax
	leaq	64(%rsp), %r8
	movl	$0, 72(%rsp)
	movq	%rsp, %rbp
	movq	%rax, 64(%rsp)
	call	new_array_from_c_array
	subq	$8, %rsp
	.cfi_def_cfa_offset 184
	movl	%ebx, %esi
	movq	%rbp, %rdi
	pushq	56(%rsp)
	.cfi_def_cfa_offset 192
	pushq	56(%rsp)
	.cfi_def_cfa_offset 200
	pushq	56(%rsp)
	.cfi_def_cfa_offset 208
	call	array_repeat
	movl	(%r14), %eax
	addq	$32, %rsp
	.cfi_def_cfa_offset 176
	testl	%eax, %eax
	je	.L811
	movl	20(%r14), %edx
	testl	%edx, %edx
	je	.L811
	movq	32(%r14), %rcx
	leaq	80(%rsp), %r13
	xorl	%ebx, %ebx
	xorl	%r15d, %r15d
.L812:
	movl	%ebx, %eax
	leaq	(%rax,%rax,2), %rax
	leaq	(%rcx,%rax,8), %rax
	cmpq	$0, (%rax)
	je	.L814
.L821:
	movdqu	(%rax), %xmm0
	movq	%r13, %rdx
	movl	%r15d, %esi
	movq	%rbp, %rdi
	addl	$1, %ebx
	addl	$1, %r15d
	movaps	%xmm0, 80(%rsp)
	call	array_set
	movl	20(%r14), %edx
	cmpl	%edx, %ebx
	jnb	.L811
	movq	32(%r14), %rcx
	movl	%ebx, %eax
	leaq	(%rax,%rax,2), %rax
	leaq	(%rcx,%rax,8), %rax
	cmpq	$0, (%rax)
	jne	.L821
.L814:
	addl	$1, %ebx
	cmpl	%edx, %ebx
	jb	.L812
	.p2align 4,,10
	.p2align 3
.L811:
	movq	16(%rsp), %rax
	movdqa	(%rsp), %xmm0
	movq	104(%rsp), %rsi
	xorq	%fs:40, %rsi
	movq	%rax, 16(%r12)
	movq	%r12, %rax
	movups	%xmm0, (%r12)
	jne	.L822
	addq	$120, %rsp
	.cfi_remember_state
	.cfi_def_cfa_offset 56
	popq	%rbx
	.cfi_def_cfa_offset 48
	popq	%rbp
	.cfi_def_cfa_offset 40
	popq	%r12
	.cfi_def_cfa_offset 32
	popq	%r13
	.cfi_def_cfa_offset 24
	popq	%r14
	.cfi_def_cfa_offset 16
	popq	%r15
	.cfi_def_cfa_offset 8
	ret
.L822:
	.cfi_restore_state
	call	__stack_chk_fail@PLT
	.cfi_endproc
.LFE222:
	.size	map_keys, .-map_keys
	.section	.rodata.str1.1
.LC73:
	.string	"malloc(<=0)"
.LC74:
	.string	"malloc(%d) failed"
	.section	.text.v_malloc,"ax",@progbits
	.p2align 4,,15
	.globl	v_malloc
	.type	v_malloc, @function
v_malloc:
.LFB137:
	.cfi_startproc
	testl	%edi, %edi
	pushq	%rbx
	.cfi_def_cfa_offset 16
	.cfi_offset 3, -16
	jle	.L827
	movl	%edi, %ebx
	movslq	%edi, %rdi
	call	malloc@PLT
	testq	%rax, %rax
	je	.L828
	popq	%rbx
	.cfi_remember_state
	.cfi_def_cfa_offset 8
	ret
.L827:
	.cfi_restore_state
	leaq	.LC73(%rip), %rdi
	movl	$11, %esi
	call	v_panic
.L828:
	leaq	.LC74(%rip), %rdi
	movl	%ebx, %esi
	call	_STR
	movq	%rdx, %rsi
	movq	%rax, %rdi
	call	v_panic
	.cfi_endproc
.LFE137:
	.size	v_malloc, .-v_malloc
	.section	.text.array_byte_hex,"ax",@progbits
	.p2align 4,,15
	.globl	array_byte_hex
	.type	array_byte_hex, @function
array_byte_hex:
.LFB113:
	.cfi_startproc
	pushq	%rbx
	.cfi_def_cfa_offset 16
	.cfi_offset 3, -16
	movl	24(%rsp), %ebx
	leal	1(%rbx,%rbx), %edi
	call	v_malloc
	testl	%ebx, %ebx
	jle	.L849
	movq	16(%rsp), %r9
	movslq	%ebx, %rdx
	leaq	(%rax,%rdx,2), %rcx
	cmpq	%rcx, %r9
	setnb	%cl
	addq	%r9, %rdx
	cmpq	%rdx, %rax
	setnb	%dl
	orb	%dl, %cl
	je	.L831
	cmpl	$15, %ebx
	jbe	.L831
	pxor	%xmm2, %xmm2
	movl	%ebx, %edi
	movq	%r9, %rsi
	movdqa	.LC75(%rip), %xmm6
	shrl	$4, %edi
	movq	%rax, %rdx
	xorl	%ecx, %ecx
	movdqa	.LC76(%rip), %xmm5
	movdqa	.LC77(%rip), %xmm4
	movdqa	.LC78(%rip), %xmm3
	movdqa	.LC79(%rip), %xmm7
	.p2align 4,,10
	.p2align 3
.L832:
	addl	$1, %ecx
	addq	$16, %rsi
	addq	$32, %rdx
	movdqu	-16(%rsi), %xmm0
	movdqa	%xmm0, %xmm1
	movdqa	%xmm0, %xmm8
	pand	%xmm7, %xmm0
	punpcklbw	%xmm2, %xmm1
	punpckhbw	%xmm2, %xmm8
	psrlw	$4, %xmm1
	pand	%xmm6, %xmm1
	psrlw	$4, %xmm8
	pand	%xmm6, %xmm8
	packuswb	%xmm8, %xmm1
	movdqa	%xmm1, %xmm8
	movdqa	%xmm1, %xmm9
	psubusb	%xmm5, %xmm1
	pcmpeqb	%xmm2, %xmm1
	paddb	%xmm4, %xmm8
	paddb	%xmm3, %xmm9
	pand	%xmm1, %xmm8
	pandn	%xmm9, %xmm1
	movdqa	%xmm0, %xmm9
	paddb	%xmm3, %xmm9
	por	%xmm8, %xmm1
	movdqa	%xmm0, %xmm8
	psubusb	%xmm5, %xmm0
	pcmpeqb	%xmm2, %xmm0
	paddb	%xmm4, %xmm8
	pand	%xmm0, %xmm8
	pandn	%xmm9, %xmm0
	por	%xmm8, %xmm0
	movdqa	%xmm1, %xmm8
	punpckhbw	%xmm0, %xmm1
	punpcklbw	%xmm0, %xmm8
	movups	%xmm1, -16(%rdx)
	movups	%xmm8, -32(%rdx)
	cmpl	%edi, %ecx
	jb	.L832
	movl	%ebx, %r8d
	andl	$-16, %r8d
	cmpl	%r8d, %ebx
	leal	(%r8,%r8), %ecx
	je	.L847
	movslq	%ecx, %rcx
	movslq	%r8d, %r8
	addq	%rax, %rcx
	.p2align 4,,10
	.p2align 3
.L837:
	movzbl	(%r9,%r8), %edx
	movl	%edx, %edi
	shrb	$4, %dil
	leal	87(%rdi), %r10d
	leal	48(%rdi), %esi
	cmpb	$10, %dil
	cmovnb	%r10d, %esi
	andl	$15, %edx
	movb	%sil, (%rcx)
	leal	87(%rdx), %edi
	leal	48(%rdx), %esi
	cmpb	$10, %dl
	cmovb	%esi, %edi
	addq	$1, %r8
	addq	$2, %rcx
	movb	%dil, -1(%rcx)
	cmpl	%r8d, %ebx
	jg	.L837
.L847:
	addl	%ebx, %ebx
	movslq	%ebx, %rdx
	addq	%rax, %rdx
.L830:
	testq	%rax, %rax
	movb	$0, (%rdx)
	je	.L861
	movl	%ebx, %edx
	popq	%rbx
	.cfi_remember_state
	.cfi_def_cfa_offset 8
	ret
	.p2align 4,,10
	.p2align 3
.L831:
	.cfi_restore_state
	leal	-1(%rbx), %edx
	leaq	1(%rax), %rcx
	leaq	1(%r9,%rdx), %r10
	.p2align 4,,10
	.p2align 3
.L846:
	movzbl	(%r9), %edx
	movl	%edx, %edi
	shrb	$4, %dil
	leal	87(%rdi), %r8d
	leal	48(%rdi), %esi
	cmpb	$10, %dil
	cmovnb	%r8d, %esi
	andl	$15, %edx
	movb	%sil, -1(%rcx)
	leal	87(%rdx), %edi
	leal	48(%rdx), %esi
	cmpb	$10, %dl
	cmovb	%esi, %edi
	addq	$1, %r9
	addq	$2, %rcx
	movb	%dil, -2(%rcx)
	cmpq	%r9, %r10
	jne	.L846
	jmp	.L847
	.p2align 4,,10
	.p2align 3
.L849:
	movq	%rax, %rdx
	xorl	%ebx, %ebx
	jmp	.L830
.L861:
	call	tos.part.7
	.cfi_endproc
.LFE113:
	.size	array_byte_hex, .-array_byte_hex
	.section	.text.memdup,"ax",@progbits
	.p2align 4,,15
	.globl	memdup
	.type	memdup, @function
memdup:
.LFB141:
	.cfi_startproc
	testl	%esi, %esi
	je	.L866
	pushq	%rbp
	.cfi_def_cfa_offset 16
	.cfi_offset 6, -16
	pushq	%rbx
	.cfi_def_cfa_offset 24
	.cfi_offset 3, -24
	movq	%rdi, %rbp
	movl	%esi, %edi
	movl	%esi, %ebx
	subq	$8, %rsp
	.cfi_def_cfa_offset 32
	call	v_malloc
	addq	$8, %rsp
	.cfi_def_cfa_offset 24
	movslq	%ebx, %rdx
	movq	%rbp, %rsi
	popq	%rbx
	.cfi_restore 3
	.cfi_def_cfa_offset 16
	popq	%rbp
	.cfi_restore 6
	.cfi_def_cfa_offset 8
	movq	%rax, %rdi
	jmp	memcpy@PLT
	.p2align 4,,10
	.p2align 3
.L866:
	movl	$1, %esi
	movl	$1, %edi
	jmp	calloc@PLT
	.cfi_endproc
.LFE141:
	.size	memdup, .-memdup
	.section	.text.int_str_l.part.15,"ax",@progbits
	.p2align 4,,15
	.type	int_str_l.part.15, @function
int_str_l.part.15:
.LFB545:
	.cfi_startproc
	pushq	%r13
	.cfi_def_cfa_offset 16
	.cfi_offset 13, -16
	pushq	%r12
	.cfi_def_cfa_offset 24
	.cfi_offset 12, -24
	pushq	%rbp
	.cfi_def_cfa_offset 32
	.cfi_offset 6, -32
	pushq	%rbx
	.cfi_def_cfa_offset 40
	.cfi_offset 3, -40
	movl	%edi, %ebx
	leal	1(%rsi), %edi
	movl	%esi, %ebp
	subq	$8, %rsp
	.cfi_def_cfa_offset 48
	call	v_malloc
	testl	%ebx, %ebx
	movq	%rax, %r9
	js	.L878
	movslq	%ebp, %rax
	xorl	%r10d, %r10d
	testl	%ebx, %ebx
	leal	-1(%rbp), %r13d
	movb	$0, (%r9,%rax)
	je	.L870
.L869:
	leal	-3(%rbp), %ecx
	leaq	_const_digit_pairs(%rip), %r8
	leaq	2(%r9), %rdi
	movl	$1374389535, %esi
	movslq	%ecx, %rcx
	.p2align 4,,10
	.p2align 3
.L871:
	movl	%ebx, %eax
	leal	1(%rcx), %r12d
	movl	%ecx, %r13d
	mull	%esi
	shrl	$5, %edx
	imull	$-100, %edx, %eax
	addl	%ebx, %eax
	movq	(%r8), %rbx
	addl	%eax, %eax
	leal	1(%rax), %r11d
	cltq
	movzbl	(%rbx,%rax), %eax
	movb	%al, (%rdi,%rcx)
	movq	(%r8), %rbx
	movslq	%r11d, %rax
	movzbl	(%rbx,%rax), %eax
	movl	%edx, %ebx
	movb	%al, -1(%rdi,%rcx)
	subq	$2, %rcx
	testl	%edx, %edx
	jne	.L871
	cmpl	$19, %r11d
	jle	.L870
	testl	%r10d, %r10d
	jne	.L873
.L879:
	movslq	%r12d, %rsi
	addq	%r9, %rsi
.L874:
	subl	%r12d, %ebp
	movq	%r9, %rdi
	leal	1(%rbp), %edx
	movslq	%edx, %rdx
	call	memmove@PLT
	addq	$8, %rsp
	.cfi_remember_state
	.cfi_def_cfa_offset 40
	movl	%ebp, %edx
	popq	%rbx
	.cfi_def_cfa_offset 32
	popq	%rbp
	.cfi_def_cfa_offset 24
	popq	%r12
	.cfi_def_cfa_offset 16
	popq	%r13
	.cfi_def_cfa_offset 8
	ret
	.p2align 4,,10
	.p2align 3
.L870:
	.cfi_restore_state
	testl	%r10d, %r10d
	leal	2(%r13), %r12d
	je	.L879
.L873:
	subl	$1, %r12d
	movslq	%r12d, %rsi
	addq	%r9, %rsi
	movb	$45, (%rsi)
	jmp	.L874
	.p2align 4,,10
	.p2align 3
.L878:
	movslq	%ebp, %rax
	negl	%ebx
	movl	$1, %r10d
	movb	$0, (%r9,%rax)
	jmp	.L869
	.cfi_endproc
.LFE545:
	.size	int_str_l.part.15, .-int_str_l.part.15
	.section	.rodata.str1.1
.LC80:
	.string	"0"
	.section	.text.int_str_l,"ax",@progbits
	.p2align 4,,15
	.globl	int_str_l
	.type	int_str_l, @function
int_str_l:
.LFB185:
	.cfi_startproc
	testl	%edi, %edi
	jne	.L884
	leaq	.LC80(%rip), %rax
	movl	$1, %edx
	ret
	.p2align 4,,10
	.p2align 3
.L884:
	jmp	int_str_l.part.15
	.cfi_endproc
.LFE185:
	.size	int_str_l, .-int_str_l
	.section	.text.i8_str,"ax",@progbits
	.p2align 4,,15
	.globl	i8_str
	.type	i8_str, @function
i8_str:
.LFB186:
	.cfi_startproc
	movsbl	%dil, %edi
	testl	%edi, %edi
	jne	.L894
	movabsq	$-4294967296, %rsi
	movl	$1, %ecx
	leaq	.LC80(%rip), %rax
	andq	%rsi, %rdx
	orq	%rcx, %rdx
	ret
	.p2align 4,,10
	.p2align 3
.L894:
	subq	$8, %rsp
	.cfi_def_cfa_offset 16
	movl	$5, %esi
	call	int_str_l.part.15
	movabsq	$-4294967296, %rsi
	movl	%edx, %ecx
	addq	$8, %rsp
	.cfi_def_cfa_offset 8
	andq	%rsi, %rdx
	orq	%rcx, %rdx
	ret
	.cfi_endproc
.LFE186:
	.size	i8_str, .-i8_str
	.section	.text.i16_str,"ax",@progbits
	.p2align 4,,15
	.globl	i16_str
	.type	i16_str, @function
i16_str:
.LFB187:
	.cfi_startproc
	movswl	%di, %edi
	testl	%edi, %edi
	jne	.L904
	movabsq	$-4294967296, %rsi
	movl	$1, %ecx
	leaq	.LC80(%rip), %rax
	andq	%rsi, %rdx
	orq	%rcx, %rdx
	ret
	.p2align 4,,10
	.p2align 3
.L904:
	subq	$8, %rsp
	.cfi_def_cfa_offset 16
	movl	$7, %esi
	call	int_str_l.part.15
	movabsq	$-4294967296, %rsi
	movl	%edx, %ecx
	addq	$8, %rsp
	.cfi_def_cfa_offset 8
	andq	%rsi, %rdx
	orq	%rcx, %rdx
	ret
	.cfi_endproc
.LFE187:
	.size	i16_str, .-i16_str
	.section	.text.u16_str,"ax",@progbits
	.p2align 4,,15
	.globl	u16_str
	.type	u16_str, @function
u16_str:
.LFB188:
	.cfi_startproc
	andl	$65535, %edi
	jne	.L914
	movabsq	$-4294967296, %rsi
	movl	$1, %ecx
	leaq	.LC80(%rip), %rax
	andq	%rsi, %rdx
	orq	%rcx, %rdx
	ret
	.p2align 4,,10
	.p2align 3
.L914:
	subq	$8, %rsp
	.cfi_def_cfa_offset 16
	movl	$7, %esi
	call	int_str_l.part.15
	movabsq	$-4294967296, %rsi
	movl	%edx, %ecx
	addq	$8, %rsp
	.cfi_def_cfa_offset 8
	andq	%rsi, %rdx
	orq	%rcx, %rdx
	ret
	.cfi_endproc
.LFE188:
	.size	u16_str, .-u16_str
	.section	.text.int_str,"ax",@progbits
	.p2align 4,,15
	.globl	int_str
	.type	int_str, @function
int_str:
.LFB189:
	.cfi_startproc
	testl	%edi, %edi
	jne	.L924
	movabsq	$-4294967296, %rsi
	movl	$1, %ecx
	leaq	.LC80(%rip), %rax
	andq	%rsi, %rdx
	orq	%rcx, %rdx
	ret
	.p2align 4,,10
	.p2align 3
.L924:
	subq	$8, %rsp
	.cfi_def_cfa_offset 16
	movl	$12, %esi
	call	int_str_l.part.15
	movabsq	$-4294967296, %rsi
	movl	%edx, %ecx
	addq	$8, %rsp
	.cfi_def_cfa_offset 8
	andq	%rsi, %rdx
	orq	%rcx, %rdx
	ret
	.cfi_endproc
.LFE189:
	.size	int_str, .-int_str
	.section	.text.i8_hex,"ax",@progbits
	.p2align 4,,15
	.globl	i8_hex
	.type	i8_hex, @function
i8_hex:
.LFB195:
	.cfi_startproc
	testb	%dil, %dil
	jne	.L937
	movl	$1, %edx
	leaq	.LC80(%rip), %rax
	ret
	.p2align 4,,10
	.p2align 3
.L937:
	pushq	%rbx
	.cfi_def_cfa_offset 16
	.cfi_offset 3, -16
	movl	%edi, %ebx
	movl	$3, %edi
	call	v_malloc
	movl	$1, %edi
	movb	$0, 2(%rax)
	leaq	1(%rax), %rsi
	jmp	.L929
	.p2align 4,,10
	.p2align 3
.L931:
	movl	%ecx, %edi
.L929:
	movl	%ebx, %ecx
	shrb	$4, %bl
	andl	$15, %ecx
	leal	48(%rcx), %eax
	leal	87(%rcx), %edx
	cmpb	$9, %cl
	leal	-1(%rdi), %ecx
	cmovbe	%eax, %edx
	testb	%bl, %bl
	movq	%rsi, %rax
	movb	%dl, (%rsi)
	leaq	-1(%rsi), %rsi
	jne	.L931
	movl	$2, %edx
	subl	%edi, %edx
	popq	%rbx
	.cfi_def_cfa_offset 8
	ret
	.cfi_endproc
.LFE195:
	.size	i8_hex, .-i8_hex
	.section	.text.i16_hex,"ax",@progbits
	.p2align 4,,15
	.globl	i16_hex
	.type	i16_hex, @function
i16_hex:
.LFB197:
	.cfi_startproc
	testw	%di, %di
	jne	.L950
	movl	$1, %edx
	leaq	.LC80(%rip), %rax
	ret
	.p2align 4,,10
	.p2align 3
.L950:
	pushq	%rbx
	.cfi_def_cfa_offset 16
	.cfi_offset 3, -16
	movl	%edi, %ebx
	movl	$6, %edi
	call	v_malloc
	movl	$4, %edi
	movb	$0, 5(%rax)
	leaq	4(%rax), %rsi
	jmp	.L942
	.p2align 4,,10
	.p2align 3
.L944:
	movl	%ecx, %edi
.L942:
	movl	%ebx, %ecx
	shrw	$4, %bx
	andl	$15, %ecx
	leal	48(%rcx), %eax
	leal	87(%rcx), %edx
	cmpw	$9, %cx
	leal	-1(%rdi), %ecx
	cmovbe	%eax, %edx
	testw	%bx, %bx
	movq	%rsi, %rax
	movb	%dl, (%rsi)
	leaq	-1(%rsi), %rsi
	jne	.L944
	movl	$5, %edx
	subl	%edi, %edx
	popq	%rbx
	.cfi_def_cfa_offset 8
	ret
	.cfi_endproc
.LFE197:
	.size	i16_hex, .-i16_hex
	.section	.text.int_hex,"ax",@progbits
	.p2align 4,,15
	.globl	int_hex
	.type	int_hex, @function
int_hex:
.LFB199:
	.cfi_startproc
	testl	%edi, %edi
	jne	.L964
	movl	$1, %edx
	leaq	.LC80(%rip), %rax
	ret
	.p2align 4,,10
	.p2align 3
.L964:
	pushq	%rbx
	.cfi_def_cfa_offset 16
	.cfi_offset 3, -16
	movl	%edi, %ebx
	movl	$11, %edi
	call	v_malloc
	movl	$9, %edi
	movb	$0, 10(%rax)
	leaq	9(%rax), %rsi
	jmp	.L955
	.p2align 4,,10
	.p2align 3
.L957:
	movl	%ecx, %edi
.L955:
	movl	%ebx, %ecx
	shrl	$4, %ebx
	andl	$15, %ecx
	leal	48(%rcx), %eax
	leal	87(%rcx), %edx
	cmpl	$9, %ecx
	leal	-1(%rdi), %ecx
	cmovbe	%eax, %edx
	testl	%ebx, %ebx
	movq	%rsi, %rax
	movb	%dl, (%rsi)
	leaq	-1(%rsi), %rsi
	jne	.L957
	movl	$10, %edx
	subl	%edi, %edx
	popq	%rbx
	.cfi_def_cfa_offset 8
	ret
	.cfi_endproc
.LFE199:
	.size	int_hex, .-int_hex
	.section	.text.i64_hex,"ax",@progbits
	.p2align 4,,15
	.globl	i64_hex
	.type	i64_hex, @function
i64_hex:
.LFB201:
	.cfi_startproc
	pushq	%rbp
	.cfi_def_cfa_offset 16
	.cfi_offset 6, -16
	pushq	%rbx
	.cfi_def_cfa_offset 24
	.cfi_offset 3, -24
	movl	$1, %ebp
	leaq	.LC80(%rip), %r8
	subq	$8, %rsp
	.cfi_def_cfa_offset 32
	testq	%rdi, %rdi
	jne	.L975
	addq	$8, %rsp
	.cfi_remember_state
	.cfi_def_cfa_offset 24
	movl	%ebp, %edx
	movq	%r8, %rax
	popq	%rbx
	.cfi_def_cfa_offset 16
	popq	%rbp
	.cfi_def_cfa_offset 8
	ret
	.p2align 4,,10
	.p2align 3
.L975:
	.cfi_restore_state
	movq	%rdi, %rbx
	movl	$19, %edi
	call	v_malloc
	movl	$17, %edi
	movq	%rax, %r8
	movb	$0, 18(%rax)
	leaq	17(%rax), %rax
	jmp	.L969
	.p2align 4,,10
	.p2align 3
.L971:
	movl	%ecx, %edi
.L969:
	movq	%rbx, %rcx
	shrq	$4, %rbx
	andl	$15, %ecx
	leal	48(%rcx), %esi
	leal	87(%rcx), %edx
	cmpq	$9, %rcx
	leal	-1(%rdi), %ecx
	cmovbe	%esi, %edx
	movq	%rax, %rsi
	subq	$1, %rax
	movb	%dl, 1(%rax)
	testq	%rbx, %rbx
	jne	.L971
	movl	$19, %edx
	movl	$18, %ebp
	subl	%edi, %edx
	subl	%edi, %ebp
	movq	%r8, %rdi
	movslq	%edx, %rdx
	call	memmove@PLT
	addq	$8, %rsp
	.cfi_def_cfa_offset 24
	movq	%rax, %r8
	movl	%ebp, %edx
	movq	%r8, %rax
	popq	%rbx
	.cfi_def_cfa_offset 16
	popq	%rbp
	.cfi_def_cfa_offset 8
	ret
	.cfi_endproc
.LFE201:
	.size	i64_hex, .-i64_hex
	.section	.text.byte_str,"ax",@progbits
	.p2align 4,,15
	.globl	byte_str
	.type	byte_str, @function
byte_str:
.LFB204:
	.cfi_startproc
	pushq	%rbx
	.cfi_def_cfa_offset 16
	.cfi_offset 3, -16
	movl	%edi, %ebx
	movl	$2, %edi
	call	v_malloc
	movl	$1, %edx
	movb	%bl, (%rax)
	movb	$0, 1(%rax)
	popq	%rbx
	.cfi_def_cfa_offset 8
	ret
	.cfi_endproc
.LFE204:
	.size	byte_str, .-byte_str
	.section	.text.new_dense_array,"ax",@progbits
	.p2align 4,,15
	.globl	new_dense_array
	.type	new_dense_array, @function
new_dense_array:
.LFB207:
	.cfi_startproc
	pushq	%rbx
	.cfi_def_cfa_offset 16
	.cfi_offset 3, -16
	movq	%rdi, %rbx
	movl	$192, %edi
	call	v_malloc
	movq	$8, (%rbx)
	movq	%rax, 16(%rbx)
	movq	%rbx, %rax
	movl	$0, 8(%rbx)
	popq	%rbx
	.cfi_def_cfa_offset 8
	ret
	.cfi_endproc
.LFE207:
	.size	new_dense_array, .-new_dense_array
	.section	.text.new_map,"ax",@progbits
	.p2align 4,,15
	.globl	new_map
	.type	new_map, @function
new_map:
.LFB210:
	.cfi_startproc
	pushq	%r13
	.cfi_def_cfa_offset 16
	.cfi_offset 13, -16
	pushq	%r12
	.cfi_def_cfa_offset 24
	.cfi_offset 12, -24
	movl	%edx, %r12d
	pushq	%rbp
	.cfi_def_cfa_offset 32
	.cfi_offset 6, -32
	pushq	%rbx
	.cfi_def_cfa_offset 40
	.cfi_offset 3, -40
	movq	%rdi, %rbx
	movl	$192, %edi
	subq	$8, %rsp
	.cfi_def_cfa_offset 48
	movl	_const_init_cap(%rip), %ebp
	call	v_malloc
	movq	%rax, %r13
	movl	_const_init_capicity(%rip), %eax
	leal	16(,%rax,4), %edi
	testl	%edi, %edi
	jle	.L983
	movslq	%edi, %rdi
	movl	$1, %esi
	call	calloc@PLT
	movl	$1296, %edx
	movl	%r12d, (%rbx)
	movl	%ebp, 4(%rbx)
	movq	%r13, 32(%rbx)
	movq	%rax, 40(%rbx)
	movq	%rbx, %rax
	movw	%dx, 8(%rbx)
	movq	$8, 16(%rbx)
	movl	$0, 24(%rbx)
	movq	$4, 48(%rbx)
	addq	$8, %rsp
	.cfi_remember_state
	.cfi_def_cfa_offset 40
	popq	%rbx
	.cfi_def_cfa_offset 32
	popq	%rbp
	.cfi_def_cfa_offset 24
	popq	%r12
	.cfi_def_cfa_offset 16
	popq	%r13
	.cfi_def_cfa_offset 8
	ret
.L983:
	.cfi_restore_state
	call	vcalloc.part.5
	.cfi_endproc
.LFE210:
	.size	new_map, .-new_map
	.section	.text.string_clone,"ax",@progbits
	.p2align 4,,15
	.globl	string_clone
	.type	string_clone, @function
string_clone:
.LFB256:
	.cfi_startproc
	pushq	%r12
	.cfi_def_cfa_offset 16
	.cfi_offset 12, -16
	pushq	%rbp
	.cfi_def_cfa_offset 24
	.cfi_offset 6, -24
	movq	%rsi, %rbp
	pushq	%rbx
	.cfi_def_cfa_offset 32
	.cfi_offset 3, -32
	movq	%rdi, %rbx
	leal	1(%rsi), %edi
	movl	%esi, %r12d
	call	v_malloc
	testl	%ebp, %ebp
	jle	.L985
	leaq	16(%rbx), %rdx
	cmpq	%rdx, %rax
	leaq	16(%rax), %rdx
	setnb	%cl
	cmpq	%rdx, %rbx
	setnb	%dl
	orb	%dl, %cl
	je	.L986
	cmpl	$22, %ebp
	jbe	.L986
	movq	%rbx, %rdx
	leal	-1(%rbp), %esi
	negq	%rdx
	andl	$15, %edx
	leal	15(%rdx), %ecx
	cmpl	%ecx, %esi
	jb	.L995
	testl	%edx, %edx
	je	.L996
	movzbl	(%rbx), %ecx
	cmpl	$1, %edx
	movb	%cl, (%rax)
	je	.L997
	movzbl	1(%rbx), %ecx
	cmpl	$2, %edx
	movb	%cl, 1(%rax)
	je	.L998
	movzbl	2(%rbx), %ecx
	cmpl	$3, %edx
	movb	%cl, 2(%rax)
	je	.L999
	movzbl	3(%rbx), %ecx
	cmpl	$4, %edx
	movb	%cl, 3(%rax)
	je	.L1000
	movzbl	4(%rbx), %ecx
	cmpl	$5, %edx
	movb	%cl, 4(%rax)
	je	.L1001
	movzbl	5(%rbx), %ecx
	cmpl	$6, %edx
	movb	%cl, 5(%rax)
	je	.L1002
	movzbl	6(%rbx), %ecx
	cmpl	$7, %edx
	movb	%cl, 6(%rax)
	je	.L1003
	movzbl	7(%rbx), %ecx
	cmpl	$8, %edx
	movb	%cl, 7(%rax)
	je	.L1004
	movzbl	8(%rbx), %ecx
	cmpl	$9, %edx
	movb	%cl, 8(%rax)
	je	.L1005
	movzbl	9(%rbx), %ecx
	cmpl	$10, %edx
	movb	%cl, 9(%rax)
	je	.L1006
	movzbl	10(%rbx), %ecx
	cmpl	$11, %edx
	movb	%cl, 10(%rax)
	je	.L1007
	movzbl	11(%rbx), %ecx
	cmpl	$12, %edx
	movb	%cl, 11(%rax)
	je	.L1008
	movzbl	12(%rbx), %ecx
	cmpl	$13, %edx
	movb	%cl, 12(%rax)
	je	.L1009
	movzbl	13(%rbx), %ecx
	cmpl	$15, %edx
	movb	%cl, 13(%rax)
	jne	.L1010
	movzbl	14(%rbx), %ecx
	movb	%cl, 14(%rax)
	movl	$15, %ecx
	.p2align 4,,10
	.p2align 3
.L988:
	movl	%ebp, %r11d
	movl	%edx, %esi
	xorl	%edi, %edi
	subl	%edx, %r11d
	leaq	(%rbx,%rsi), %r9
	leaq	(%rax,%rsi), %rdx
	movl	%r11d, %r10d
	xorl	%r8d, %r8d
	shrl	$4, %r10d
	.p2align 4,,10
	.p2align 3
.L990:
	movdqa	(%r9,%rdi), %xmm0
	addl	$1, %r8d
	movups	%xmm0, (%rdx,%rdi)
	addq	$16, %rdi
	cmpl	%r8d, %r10d
	ja	.L990
	movl	%r11d, %edx
	andl	$-16, %edx
	addl	%edx, %ecx
	cmpl	%edx, %r11d
	je	.L985
.L987:
	movslq	%ecx, %rcx
	.p2align 4,,10
	.p2align 3
.L992:
	movzbl	(%rbx,%rcx), %edx
	movb	%dl, (%rax,%rcx)
	addq	$1, %rcx
	cmpl	%ecx, %r12d
	jg	.L992
.L985:
	movslq	%ebp, %rdx
	movb	$0, (%rax,%rdx)
	movl	%ebp, %edx
	popq	%rbx
	.cfi_remember_state
	.cfi_def_cfa_offset 24
	popq	%rbp
	.cfi_def_cfa_offset 16
	popq	%r12
	.cfi_def_cfa_offset 8
	ret
	.p2align 4,,10
	.p2align 3
.L997:
	.cfi_restore_state
	movl	$1, %ecx
	jmp	.L988
	.p2align 4,,10
	.p2align 3
.L986:
	leal	-1(%rbp), %esi
	xorl	%edx, %edx
	addq	$1, %rsi
	.p2align 4,,10
	.p2align 3
.L993:
	movzbl	(%rbx,%rdx), %ecx
	movb	%cl, (%rax,%rdx)
	addq	$1, %rdx
	cmpq	%rsi, %rdx
	jne	.L993
	movslq	%ebp, %rdx
	movb	$0, (%rax,%rdx)
	movl	%ebp, %edx
	popq	%rbx
	.cfi_remember_state
	.cfi_def_cfa_offset 24
	popq	%rbp
	.cfi_def_cfa_offset 16
	popq	%r12
	.cfi_def_cfa_offset 8
	ret
	.p2align 4,,10
	.p2align 3
.L998:
	.cfi_restore_state
	movl	$2, %ecx
	jmp	.L988
	.p2align 4,,10
	.p2align 3
.L995:
	xorl	%ecx, %ecx
	jmp	.L987
	.p2align 4,,10
	.p2align 3
.L999:
	movl	$3, %ecx
	jmp	.L988
	.p2align 4,,10
	.p2align 3
.L1000:
	movl	$4, %ecx
	jmp	.L988
.L1003:
	movl	$7, %ecx
	jmp	.L988
	.p2align 4,,10
	.p2align 3
.L1001:
	movl	$5, %ecx
	jmp	.L988
.L1002:
	movl	$6, %ecx
	jmp	.L988
.L996:
	xorl	%ecx, %ecx
	jmp	.L988
.L1004:
	movl	$8, %ecx
	jmp	.L988
.L1005:
	movl	$9, %ecx
	jmp	.L988
.L1006:
	movl	$10, %ecx
	jmp	.L988
.L1007:
	movl	$11, %ecx
	jmp	.L988
.L1008:
	movl	$12, %ecx
	jmp	.L988
.L1009:
	movl	$13, %ecx
	jmp	.L988
.L1010:
	movl	$14, %ecx
	jmp	.L988
	.cfi_endproc
.LFE256:
	.size	string_clone, .-string_clone
	.section	.text.string_add,"ax",@progbits
	.p2align 4,,15
	.globl	string_add
	.type	string_add, @function
string_add:
.LFB279:
	.cfi_startproc
	pushq	%r15
	.cfi_def_cfa_offset 16
	.cfi_offset 15, -16
	pushq	%r14
	.cfi_def_cfa_offset 24
	.cfi_offset 14, -24
	movq	%rsi, %r14
	pushq	%r13
	.cfi_def_cfa_offset 32
	.cfi_offset 13, -32
	pushq	%r12
	.cfi_def_cfa_offset 40
	.cfi_offset 12, -40
	leal	(%rcx,%rsi), %r12d
	pushq	%rbp
	.cfi_def_cfa_offset 48
	.cfi_offset 6, -48
	pushq	%rbx
	.cfi_def_cfa_offset 56
	.cfi_offset 3, -56
	movq	%rdi, %rbp
	leal	1(%r12), %edi
	movq	%rdx, %rbx
	movq	%rcx, %r15
	subq	$24, %rsp
	.cfi_def_cfa_offset 80
	movl	%ecx, %r13d
	movl	%esi, 12(%rsp)
	call	v_malloc
	testl	%r14d, %r14d
	jle	.L1022
	leaq	16(%rax), %rdx
	cmpq	%rdx, %rbp
	leaq	16(%rbp), %rdx
	setnb	%sil
	cmpq	%rdx, %rax
	setnb	%dl
	orb	%dl, %sil
	je	.L1023
	cmpl	$22, %r14d
	jbe	.L1023
	movq	%rbp, %rdx
	leal	-1(%r14), %edi
	movl	12(%rsp), %ecx
	negq	%rdx
	andl	$15, %edx
	leal	15(%rdx), %esi
	cmpl	%esi, %edi
	jb	.L1042
	testl	%edx, %edx
	je	.L1043
	movzbl	0(%rbp), %esi
	cmpl	$1, %edx
	movb	%sil, (%rax)
	je	.L1044
	movzbl	1(%rbp), %esi
	cmpl	$2, %edx
	movb	%sil, 1(%rax)
	je	.L1045
	movzbl	2(%rbp), %esi
	cmpl	$3, %edx
	movb	%sil, 2(%rax)
	je	.L1046
	movzbl	3(%rbp), %esi
	cmpl	$4, %edx
	movb	%sil, 3(%rax)
	je	.L1047
	movzbl	4(%rbp), %esi
	cmpl	$5, %edx
	movb	%sil, 4(%rax)
	je	.L1048
	movzbl	5(%rbp), %esi
	cmpl	$6, %edx
	movb	%sil, 5(%rax)
	je	.L1049
	movzbl	6(%rbp), %esi
	cmpl	$7, %edx
	movb	%sil, 6(%rax)
	je	.L1050
	movzbl	7(%rbp), %esi
	cmpl	$8, %edx
	movb	%sil, 7(%rax)
	je	.L1051
	movzbl	8(%rbp), %esi
	cmpl	$9, %edx
	movb	%sil, 8(%rax)
	je	.L1052
	movzbl	9(%rbp), %esi
	cmpl	$10, %edx
	movb	%sil, 9(%rax)
	je	.L1053
	movzbl	10(%rbp), %esi
	cmpl	$11, %edx
	movb	%sil, 10(%rax)
	je	.L1054
	movzbl	11(%rbp), %esi
	cmpl	$12, %edx
	movb	%sil, 11(%rax)
	je	.L1055
	movzbl	12(%rbp), %esi
	cmpl	$13, %edx
	movb	%sil, 12(%rax)
	je	.L1056
	movzbl	13(%rbp), %esi
	cmpl	$15, %edx
	movb	%sil, 13(%rax)
	jne	.L1057
	movzbl	14(%rbp), %esi
	movl	$15, %edi
	movb	%sil, 14(%rax)
	.p2align 4,,10
	.p2align 3
.L1025:
	movl	%r14d, %r10d
	movl	%edx, %esi
	xorl	%r8d, %r8d
	subl	%edx, %r10d
	leaq	0(%rbp,%rsi), %r9
	xorl	%edx, %edx
	movl	%r10d, %r11d
	addq	%rax, %rsi
	shrl	$4, %r11d
	.p2align 4,,10
	.p2align 3
.L1027:
	movdqa	(%r9,%r8), %xmm0
	addl	$1, %edx
	movups	%xmm0, (%rsi,%r8)
	addq	$16, %r8
	cmpl	%edx, %r11d
	ja	.L1027
	movl	%r10d, %edx
	andl	$-16, %edx
	addl	%edx, %edi
	cmpl	%edx, %r10d
	je	.L1022
.L1024:
	movslq	%edi, %rdi
	.p2align 4,,10
	.p2align 3
.L1029:
	movzbl	0(%rbp,%rdi), %edx
	movb	%dl, (%rax,%rdi)
	addq	$1, %rdi
	cmpl	%edi, %ecx
	jg	.L1029
.L1022:
	testl	%r15d, %r15d
	jle	.L1032
	movslq	%r14d, %r8
	leaq	16(%rax,%r8), %rdx
	leaq	(%rax,%r8), %r9
	cmpq	%rdx, %rbx
	leaq	16(%rbx), %rdx
	setnb	%cl
	cmpq	%rdx, %r9
	setnb	%dl
	orb	%dl, %cl
	je	.L1033
	cmpl	$22, %r15d
	jbe	.L1033
	movq	%rbx, %rcx
	leal	-1(%r15), %esi
	negq	%rcx
	andl	$15, %ecx
	leal	15(%rcx), %edx
	cmpl	%edx, %esi
	jb	.L1058
	testl	%ecx, %ecx
	je	.L1059
	movzbl	(%rbx), %edx
	cmpl	$1, %ecx
	movb	%dl, (%r9)
	je	.L1060
	movzbl	1(%rbx), %esi
	leal	1(%r14), %edx
	cmpl	$2, %ecx
	movslq	%edx, %rdx
	movb	%sil, (%rax,%rdx)
	je	.L1061
	movzbl	2(%rbx), %esi
	leal	2(%r14), %edx
	cmpl	$3, %ecx
	movslq	%edx, %rdx
	movb	%sil, (%rax,%rdx)
	je	.L1062
	movzbl	3(%rbx), %esi
	leal	3(%r14), %edx
	cmpl	$4, %ecx
	movslq	%edx, %rdx
	movb	%sil, (%rax,%rdx)
	je	.L1063
	movzbl	4(%rbx), %esi
	leal	4(%r14), %edx
	cmpl	$5, %ecx
	movslq	%edx, %rdx
	movb	%sil, (%rax,%rdx)
	je	.L1064
	movzbl	5(%rbx), %esi
	leal	5(%r14), %edx
	cmpl	$6, %ecx
	movslq	%edx, %rdx
	movb	%sil, (%rax,%rdx)
	je	.L1065
	movzbl	6(%rbx), %esi
	leal	6(%r14), %edx
	cmpl	$7, %ecx
	movslq	%edx, %rdx
	movb	%sil, (%rax,%rdx)
	je	.L1066
	movzbl	7(%rbx), %esi
	leal	7(%r14), %edx
	cmpl	$8, %ecx
	movslq	%edx, %rdx
	movb	%sil, (%rax,%rdx)
	je	.L1067
	movzbl	8(%rbx), %esi
	leal	8(%r14), %edx
	cmpl	$9, %ecx
	movslq	%edx, %rdx
	movb	%sil, (%rax,%rdx)
	je	.L1068
	movzbl	9(%rbx), %esi
	leal	9(%r14), %edx
	cmpl	$10, %ecx
	movslq	%edx, %rdx
	movb	%sil, (%rax,%rdx)
	je	.L1069
	movzbl	10(%rbx), %esi
	leal	10(%r14), %edx
	cmpl	$11, %ecx
	movslq	%edx, %rdx
	movb	%sil, (%rax,%rdx)
	je	.L1070
	movzbl	11(%rbx), %esi
	leal	11(%r14), %edx
	cmpl	$12, %ecx
	movslq	%edx, %rdx
	movb	%sil, (%rax,%rdx)
	je	.L1071
	movzbl	12(%rbx), %esi
	leal	12(%r14), %edx
	cmpl	$13, %ecx
	movslq	%edx, %rdx
	movb	%sil, (%rax,%rdx)
	je	.L1072
	movzbl	13(%rbx), %esi
	leal	13(%r14), %edx
	cmpl	$15, %ecx
	movslq	%edx, %rdx
	movb	%sil, (%rax,%rdx)
	jne	.L1073
	movzbl	14(%rbx), %esi
	leal	14(%r14), %edx
	movslq	%edx, %rdx
	movb	%sil, (%rax,%rdx)
	movl	$15, %esi
	.p2align 4,,10
	.p2align 3
.L1035:
	movl	%ecx, %edx
	subl	%ecx, %r15d
	xorl	%edi, %edi
	addq	%rdx, %r8
	movl	%r15d, %r11d
	leaq	(%rbx,%rdx), %r10
	shrl	$4, %r11d
	addq	%rax, %r8
	xorl	%edx, %edx
	.p2align 4,,10
	.p2align 3
.L1037:
	movdqa	(%r10,%rdi), %xmm0
	addl	$1, %edx
	movups	%xmm0, (%r8,%rdi)
	addq	$16, %rdi
	cmpl	%edx, %r11d
	ja	.L1037
	movl	%r15d, %edx
	andl	$-16, %edx
	addl	%edx, %esi
	cmpl	%edx, %r15d
	je	.L1032
.L1034:
	movslq	%esi, %rcx
	.p2align 4,,10
	.p2align 3
.L1039:
	movzbl	(%rbx,%rcx), %edx
	movb	%dl, (%r9,%rcx)
	addq	$1, %rcx
	cmpl	%ecx, %r13d
	jg	.L1039
.L1032:
	movslq	%r12d, %rdx
	movb	$0, (%rax,%rdx)
	addq	$24, %rsp
	.cfi_remember_state
	.cfi_def_cfa_offset 56
	movl	%r12d, %edx
	popq	%rbx
	.cfi_def_cfa_offset 48
	popq	%rbp
	.cfi_def_cfa_offset 40
	popq	%r12
	.cfi_def_cfa_offset 32
	popq	%r13
	.cfi_def_cfa_offset 24
	popq	%r14
	.cfi_def_cfa_offset 16
	popq	%r15
	.cfi_def_cfa_offset 8
	ret
	.p2align 4,,10
	.p2align 3
.L1060:
	.cfi_restore_state
	movl	$1, %esi
	jmp	.L1035
	.p2align 4,,10
	.p2align 3
.L1044:
	movl	$1, %edi
	jmp	.L1025
	.p2align 4,,10
	.p2align 3
.L1033:
	leal	-1(%r15), %esi
	xorl	%edx, %edx
	addq	$1, %rsi
	.p2align 4,,10
	.p2align 3
.L1040:
	movzbl	(%rbx,%rdx), %ecx
	movb	%cl, (%r9,%rdx)
	addq	$1, %rdx
	cmpq	%rsi, %rdx
	jne	.L1040
	jmp	.L1032
	.p2align 4,,10
	.p2align 3
.L1023:
	leal	-1(%r14), %esi
	xorl	%edx, %edx
	addq	$1, %rsi
	.p2align 4,,10
	.p2align 3
.L1030:
	movzbl	0(%rbp,%rdx), %ecx
	movb	%cl, (%rax,%rdx)
	addq	$1, %rdx
	cmpq	%rsi, %rdx
	jne	.L1030
	jmp	.L1022
	.p2align 4,,10
	.p2align 3
.L1061:
	movl	$2, %esi
	jmp	.L1035
	.p2align 4,,10
	.p2align 3
.L1045:
	movl	$2, %edi
	jmp	.L1025
	.p2align 4,,10
	.p2align 3
.L1058:
	xorl	%esi, %esi
	jmp	.L1034
	.p2align 4,,10
	.p2align 3
.L1042:
	xorl	%edi, %edi
	jmp	.L1024
	.p2align 4,,10
	.p2align 3
.L1062:
	movl	$3, %esi
	jmp	.L1035
	.p2align 4,,10
	.p2align 3
.L1046:
	movl	$3, %edi
	jmp	.L1025
	.p2align 4,,10
	.p2align 3
.L1063:
	movl	$4, %esi
	jmp	.L1035
	.p2align 4,,10
	.p2align 3
.L1047:
	movl	$4, %edi
	jmp	.L1025
.L1050:
	movl	$7, %edi
	jmp	.L1025
.L1066:
	movl	$7, %esi
	jmp	.L1035
	.p2align 4,,10
	.p2align 3
.L1048:
	movl	$5, %edi
	jmp	.L1025
	.p2align 4,,10
	.p2align 3
.L1064:
	movl	$5, %esi
	jmp	.L1035
.L1065:
	movl	$6, %esi
	jmp	.L1035
.L1049:
	movl	$6, %edi
	jmp	.L1025
.L1043:
	xorl	%edi, %edi
	jmp	.L1025
.L1059:
	xorl	%esi, %esi
	jmp	.L1035
.L1051:
	movl	$8, %edi
	jmp	.L1025
.L1067:
	movl	$8, %esi
	jmp	.L1035
.L1068:
	movl	$9, %esi
	jmp	.L1035
.L1052:
	movl	$9, %edi
	jmp	.L1025
.L1053:
	movl	$10, %edi
	jmp	.L1025
.L1069:
	movl	$10, %esi
	jmp	.L1035
.L1070:
	movl	$11, %esi
	jmp	.L1035
.L1054:
	movl	$11, %edi
	jmp	.L1025
.L1071:
	movl	$12, %esi
	jmp	.L1035
.L1055:
	movl	$12, %edi
	jmp	.L1025
.L1072:
	movl	$13, %esi
	jmp	.L1035
.L1056:
	movl	$13, %edi
	jmp	.L1025
.L1073:
	movl	$14, %esi
	jmp	.L1035
.L1057:
	movl	$14, %edi
	jmp	.L1025
	.cfi_endproc
.LFE279:
	.size	string_add, .-string_add
	.section	.text.ustring_add,"ax",@progbits
	.p2align 4,,15
	.globl	ustring_add
	.type	ustring_add, @function
ustring_add:
.LFB326:
	.cfi_startproc
	pushq	%r15
	.cfi_def_cfa_offset 16
	.cfi_offset 15, -16
	pushq	%r14
	.cfi_def_cfa_offset 24
	.cfi_offset 14, -24
	pushq	%r13
	.cfi_def_cfa_offset 32
	.cfi_offset 13, -32
	pushq	%r12
	.cfi_def_cfa_offset 40
	.cfi_offset 12, -40
	pushq	%rbp
	.cfi_def_cfa_offset 48
	.cfi_offset 6, -48
	pushq	%rbx
	.cfi_def_cfa_offset 56
	.cfi_offset 3, -56
	subq	$120, %rsp
	.cfi_def_cfa_offset 176
	movl	184(%rsp), %ebx
	movl	232(%rsp), %r14d
	movq	%rdi, 24(%rsp)
	movq	224(%rsp), %rdx
	movq	232(%rsp), %rcx
	movq	176(%rsp), %rdi
	movq	184(%rsp), %rsi
	movl	%ebx, (%rsp)
	movq	%fs:40, %rax
	movq	%rax, 104(%rsp)
	xorl	%eax, %eax
	movl	%r14d, 12(%rsp)
	call	string_add
	addl	%r14d, %ebx
	movq	%rax, 48(%rsp)
	movq	%rdx, 56(%rsp)
	je	.L1101
	leal	0(,%rbx,4), %edi
	testl	%edi, %edi
	jle	.L1095
	movslq	%edi, %rdi
.L1094:
	movl	$1, %esi
	call	calloc@PLT
	movl	(%rsp), %edx
	movq	%rax, 64(%rsp)
	movl	$0, 72(%rsp)
	movl	%ebx, 76(%rsp)
	movl	$4, 80(%rsp)
	movl	$0, 88(%rsp)
	testl	%edx, %edx
	jle	.L1102
	movq	176(%rsp), %rax
	leaq	44(%rsp), %rbp
	leaq	48(%rsp), %rbx
	xorl	%r15d, %r15d
	xorl	%r13d, %r13d
	movq	%rax, 16(%rsp)
	.p2align 4,,10
	.p2align 3
.L1097:
	movq	16(%rsp), %rax
	movslq	%r15d, %rdx
	leaq	16(%rbx), %rdi
	movq	%rbp, %rsi
	movl	%r13d, 44(%rsp)
	movzbl	(%rax,%rdx), %ecx
	movl	$-452984832, %edx
	shrb	$3, %cl
	andl	$30, %ecx
	shrl	%cl, %edx
	andl	$3, %edx
	leal	1(%rdx), %r12d
	movl	%edx, %r14d
	leal	1(%r15,%r14), %r15d
	call	array_push
	addl	%r12d, %r13d
	addl	$1, 88(%rsp)
	cmpl	%r15d, (%rsp)
	jg	.L1097
.L1096:
	movl	12(%rsp), %eax
	testl	%eax, %eax
	jle	.L1098
	movq	224(%rsp), %rax
	leaq	44(%rsp), %rbp
	leaq	48(%rsp), %rbx
	xorl	%r14d, %r14d
	movq	%rax, (%rsp)
	.p2align 4,,10
	.p2align 3
.L1099:
	movq	(%rsp), %rax
	movslq	%r14d, %rdx
	leaq	16(%rbx), %rdi
	movq	%rbp, %rsi
	movl	%r13d, 44(%rsp)
	movzbl	(%rax,%rdx), %ecx
	movl	$-452984832, %edx
	shrb	$3, %cl
	andl	$30, %ecx
	shrl	%cl, %edx
	andl	$3, %edx
	leal	1(%rdx), %r12d
	movl	%edx, %r15d
	leal	1(%r14,%r15), %r14d
	call	array_push
	addl	%r12d, %r13d
	addl	$1, 88(%rsp)
	cmpl	%r14d, 12(%rsp)
	jg	.L1099
.L1098:
	movq	24(%rsp), %rax
	movdqa	48(%rsp), %xmm0
	movq	104(%rsp), %rsi
	xorq	%fs:40, %rsi
	movups	%xmm0, (%rax)
	movdqa	64(%rsp), %xmm0
	movups	%xmm0, 16(%rax)
	movdqa	80(%rsp), %xmm0
	movups	%xmm0, 32(%rax)
	jne	.L1106
	addq	$120, %rsp
	.cfi_remember_state
	.cfi_def_cfa_offset 56
	popq	%rbx
	.cfi_def_cfa_offset 48
	popq	%rbp
	.cfi_def_cfa_offset 40
	popq	%r12
	.cfi_def_cfa_offset 32
	popq	%r13
	.cfi_def_cfa_offset 24
	popq	%r14
	.cfi_def_cfa_offset 16
	popq	%r15
	.cfi_def_cfa_offset 8
	ret
	.p2align 4,,10
	.p2align 3
.L1101:
	.cfi_restore_state
	movl	$4, %edi
	movl	$1, %ebx
	jmp	.L1094
	.p2align 4,,10
	.p2align 3
.L1102:
	xorl	%r13d, %r13d
	jmp	.L1096
.L1106:
	call	__stack_chk_fail@PLT
.L1095:
	call	vcalloc.part.5
	.cfi_endproc
.LFE326:
	.size	ustring_add, .-ustring_add
	.section	.text.string_to_lower,"ax",@progbits
	.p2align 4,,15
	.globl	string_to_lower
	.type	string_to_lower, @function
string_to_lower:
.LFB299:
	.cfi_startproc
	pushq	%r12
	.cfi_def_cfa_offset 16
	.cfi_offset 12, -16
	movq	%rdi, %r12
	pushq	%rbp
	.cfi_def_cfa_offset 24
	.cfi_offset 6, -24
	leal	1(%rsi), %edi
	pushq	%rbx
	.cfi_def_cfa_offset 32
	.cfi_offset 3, -32
	movq	%rsi, %rbp
	call	v_malloc
	testl	%ebp, %ebp
	movq	%rax, %rbx
	jle	.L1108
	call	__ctype_tolower_loc@PLT
	leal	-1(%rbp), %r9d
	xorl	%ecx, %ecx
	addq	$1, %r9
	.p2align 4,,10
	.p2align 3
.L1109:
	movzbl	(%r12,%rcx), %r8d
	movq	(%rax), %rdi
	movl	(%rdi,%r8,4), %edi
	movb	%dil, (%rbx,%rcx)
	addq	$1, %rcx
	cmpq	%rcx, %r9
	jne	.L1109
.L1110:
	movl	%ebp, %edx
	movq	%rbx, %rax
	popq	%rbx
	.cfi_remember_state
	.cfi_def_cfa_offset 24
	popq	%rbp
	.cfi_def_cfa_offset 16
	popq	%r12
	.cfi_def_cfa_offset 8
	ret
	.p2align 4,,10
	.p2align 3
.L1108:
	.cfi_restore_state
	testq	%rax, %rax
	jne	.L1110
	call	tos.part.7
	.cfi_endproc
.LFE299:
	.size	string_to_lower, .-string_to_lower
	.section	.text.string_to_upper,"ax",@progbits
	.p2align 4,,15
	.globl	string_to_upper
	.type	string_to_upper, @function
string_to_upper:
.LFB300:
	.cfi_startproc
	pushq	%r12
	.cfi_def_cfa_offset 16
	.cfi_offset 12, -16
	movq	%rdi, %r12
	pushq	%rbp
	.cfi_def_cfa_offset 24
	.cfi_offset 6, -24
	leal	1(%rsi), %edi
	pushq	%rbx
	.cfi_def_cfa_offset 32
	.cfi_offset 3, -32
	movq	%rsi, %rbp
	call	v_malloc
	testl	%ebp, %ebp
	movq	%rax, %rbx
	jle	.L1114
	call	__ctype_toupper_loc@PLT
	leal	-1(%rbp), %r9d
	xorl	%ecx, %ecx
	addq	$1, %r9
	.p2align 4,,10
	.p2align 3
.L1115:
	movzbl	(%r12,%rcx), %r8d
	movq	(%rax), %rdi
	movl	(%rdi,%r8,4), %edi
	movb	%dil, (%rbx,%rcx)
	addq	$1, %rcx
	cmpq	%rcx, %r9
	jne	.L1115
.L1116:
	movl	%ebp, %edx
	movq	%rbx, %rax
	popq	%rbx
	.cfi_remember_state
	.cfi_def_cfa_offset 24
	popq	%rbp
	.cfi_def_cfa_offset 16
	popq	%r12
	.cfi_def_cfa_offset 8
	ret
	.p2align 4,,10
	.p2align 3
.L1114:
	.cfi_restore_state
	testq	%rax, %rax
	jne	.L1116
	call	tos.part.7
	.cfi_endproc
.LFE300:
	.size	string_to_upper, .-string_to_upper
	.section	.text.rune_str,"ax",@progbits
	.p2align 4,,15
	.globl	rune_str
	.type	rune_str, @function
rune_str:
.LFB203:
	.cfi_startproc
	movl	%edi, %ecx
	pushq	%rbp
	.cfi_def_cfa_offset 16
	.cfi_offset 6, -16
	movl	%edi, %ebp
	shrl	$27, %ecx
	movl	$-452984832, %edi
	pushq	%rbx
	.cfi_def_cfa_offset 24
	.cfi_offset 3, -24
	andl	$30, %ecx
	shrl	%cl, %edi
	subq	$8, %rsp
	.cfi_def_cfa_offset 32
	andl	$3, %edi
	leal	1(%rdi), %ebx
	addl	$2, %edi
	call	v_malloc
	movl	$24, %ecx
	xorl	%esi, %esi
	.p2align 4,,10
	.p2align 3
.L1120:
	movl	%ebp, %edi
	sarl	%cl, %edi
	subl	$8, %ecx
	movb	%dil, (%rax,%rsi)
	addq	$1, %rsi
	cmpl	%esi, %ebx
	jg	.L1120
	movslq	%ebx, %rdx
	movb	$0, (%rax,%rdx)
	movl	%ebx, %edx
	addq	$8, %rsp
	.cfi_def_cfa_offset 24
	andl	$7, %edx
	popq	%rbx
	.cfi_def_cfa_offset 16
	popq	%rbp
	.cfi_def_cfa_offset 8
	ret
	.cfi_endproc
.LFE203:
	.size	rune_str, .-rune_str
	.section	.text.map_set,"ax",@progbits
	.p2align 4,,15
	.globl	map_set
	.type	map_set, @function
map_set:
.LFB215:
	.cfi_startproc
	pushq	%r15
	.cfi_def_cfa_offset 16
	.cfi_offset 15, -16
	pushq	%r14
	.cfi_def_cfa_offset 24
	.cfi_offset 14, -24
	pushq	%r13
	.cfi_def_cfa_offset 32
	.cfi_offset 13, -32
	pushq	%r12
	.cfi_def_cfa_offset 40
	.cfi_offset 12, -40
	pushq	%rbp
	.cfi_def_cfa_offset 48
	.cfi_offset 6, -48
	pushq	%rbx
	.cfi_def_cfa_offset 56
	.cfi_offset 3, -56
	movq	%rdi, %rbx
	pxor	%xmm0, %xmm0
	subq	$40, %rsp
	.cfi_def_cfa_offset 96
	movl	4(%rdi), %ebp
	movl	52(%rdi), %eax
	pxor	%xmm1, %xmm1
	movq	%rsi, (%rsp)
	movq	%rdx, 16(%rsp)
	movq	%rcx, 24(%rsp)
	addl	%eax, %eax
	cvtsi2ss	%eax, %xmm0
	cvtsi2ssq	%rbp, %xmm1
	divss	%xmm1, %xmm0
	cvtss2sd	%xmm0, %xmm0
	ucomisd	_const_max_load_factor(%rip), %xmm0
	ja	.L1142
.L1124:
	movslq	16(%rsp), %rsi
	movq	(%rsp), %rdi
	xorl	%edx, %edx
	call	wyhash
	movzbl	9(%rbx), %ecx
	movq	%rbp, %rsi
	movq	40(%rbx), %r13
	andq	%rax, %rsi
	movl	_const_probe_inc(%rip), %ebp
	movl	%esi, %r15d
	shrq	%cl, %rax
	andl	_const_hash_mask(%rip), %eax
	orl	%ebp, %eax
	cmpl	0(%r13,%rsi,4), %eax
	movl	%eax, %r14d
	jnb	.L1130
	.p2align 4,,10
	.p2align 3
.L1131:
	leal	2(%r15), %eax
	addl	%ebp, %r14d
	movq	%rax, %r15
	movl	0(%r13,%rax,4), %eax
	cmpl	%eax, %r14d
	jb	.L1131
.L1132:
	cmpl	%eax, %r14d
	jne	.L1133
	movq	32(%rbx), %rax
	movq	%rax, 8(%rsp)
	jmp	.L1135
	.p2align 4,,10
	.p2align 3
.L1134:
	leal	2(%r15), %eax
	addl	%ebp, %r14d
	cmpl	%r14d, 0(%r13,%rax,4)
	movq	%rax, %r15
	jne	.L1133
.L1135:
	leal	1(%r15), %eax
	movq	8(%rsp), %rcx
	movq	(%rsp), %rdi
	movl	0(%r13,%rax,4), %eax
	leaq	(%rax,%rax,2), %rax
	leaq	(%rcx,%rax,8), %r12
	movq	(%r12), %rsi
	call	strcmp@PLT
	testl	%eax, %eax
	jne	.L1134
	movq	16(%r12), %rdi
	movslq	(%rbx), %rdx
	movq	24(%rsp), %rsi
	addq	$40, %rsp
	.cfi_remember_state
	.cfi_def_cfa_offset 56
	popq	%rbx
	.cfi_def_cfa_offset 48
	popq	%rbp
	.cfi_def_cfa_offset 40
	popq	%r12
	.cfi_def_cfa_offset 32
	popq	%r13
	.cfi_def_cfa_offset 24
	popq	%r14
	.cfi_def_cfa_offset 16
	popq	%r15
	.cfi_def_cfa_offset 8
	jmp	memcpy@PLT
	.p2align 4,,10
	.p2align 3
.L1133:
	.cfi_restore_state
	movl	(%rbx), %edi
	call	v_malloc
	movslq	(%rbx), %rdx
	movq	24(%rsp), %rsi
	movq	%rax, %rdi
	movq	%rax, %rbp
	call	memcpy@PLT
	movl	20(%rbx), %ecx
	cmpl	%ecx, 16(%rbx)
	je	.L1136
	movq	32(%rbx), %rax
.L1137:
	movl	%ecx, %edx
	movl	%r15d, %esi
	movq	%rbx, %rdi
	leaq	(%rdx,%rdx,2), %rdx
	leaq	(%rax,%rdx,8), %rax
	movq	(%rsp), %rdx
	movq	%rbp, 16(%rax)
	movq	%rdx, (%rax)
	movl	16(%rsp), %edx
	movl	%edx, 8(%rax)
	leal	1(%rcx), %eax
	movl	%r14d, %edx
	movl	%eax, 20(%rbx)
	call	map_meta_greater
	addl	$1, 52(%rbx)
	addq	$40, %rsp
	.cfi_remember_state
	.cfi_def_cfa_offset 56
	popq	%rbx
	.cfi_def_cfa_offset 48
	popq	%rbp
	.cfi_def_cfa_offset 40
	popq	%r12
	.cfi_def_cfa_offset 32
	popq	%r13
	.cfi_def_cfa_offset 24
	popq	%r14
	.cfi_def_cfa_offset 16
	popq	%r15
	.cfi_def_cfa_offset 8
	ret
	.p2align 4,,10
	.p2align 3
.L1142:
	.cfi_restore_state
	cmpb	$0, 8(%rdi)
	leal	2(%rbp,%rbp), %eax
	movq	%rbp, %rsi
	movl	%eax, 4(%rdi)
	je	.L1143
	call	map_cached_rehash
.L1129:
	subb	$1, 8(%rbx)
	movl	4(%rbx), %ebp
	jmp	.L1124
	.p2align 4,,10
	.p2align 3
.L1143:
	addb	$16, 9(%rdi)
	movb	$16, 8(%rdi)
	call	map_rehash
	jmp	.L1129
	.p2align 4,,10
	.p2align 3
.L1136:
	movl	%ecx, %eax
	movq	32(%rbx), %rdi
	shrl	$3, %eax
	addl	%eax, %ecx
	leaq	(%rcx,%rcx,2), %rsi
	movl	%ecx, 16(%rbx)
	salq	$3, %rsi
	call	realloc@PLT
	movl	20(%rbx), %ecx
	movq	%rax, 32(%rbx)
	jmp	.L1137
	.p2align 4,,10
	.p2align 3
.L1130:
	movl	0(%r13,%rsi,4), %eax
	jmp	.L1132
	.cfi_endproc
.LFE215:
	.size	map_set, .-map_set
	.section	.text.map_get3,"ax",@progbits
	.p2align 4,,15
	.globl	map_get3
	.type	map_get3, @function
map_get3:
.LFB219:
	.cfi_startproc
	pushq	%r15
	.cfi_def_cfa_offset 16
	.cfi_offset 15, -16
	pushq	%r14
	.cfi_def_cfa_offset 24
	.cfi_offset 14, -24
	movslq	%esi, %rsi
	pushq	%r13
	.cfi_def_cfa_offset 32
	.cfi_offset 13, -32
	pushq	%r12
	.cfi_def_cfa_offset 40
	.cfi_offset 12, -40
	pushq	%rbp
	.cfi_def_cfa_offset 48
	.cfi_offset 6, -48
	pushq	%rbx
	.cfi_def_cfa_offset 56
	.cfi_offset 3, -56
	subq	$24, %rsp
	.cfi_def_cfa_offset 80
	movq	%rdx, 8(%rsp)
	xorl	%edx, %edx
	movq	%rdi, (%rsp)
	call	wyhash
	movzbl	89(%rsp), %ecx
	movl	%eax, %esi
	andl	84(%rsp), %esi
	movq	120(%rsp), %r13
	movl	_const_probe_inc(%rip), %ebp
	movq	112(%rsp), %r14
	shrq	%cl, %rax
	andl	_const_hash_mask(%rip), %eax
	movl	%esi, %ebx
	orl	%ebp, %eax
	cmpl	0(%r13,%rsi,4), %eax
	movl	%eax, %r15d
	jnb	.L1145
	.p2align 4,,10
	.p2align 3
.L1146:
	leal	2(%rbx), %eax
	addl	%ebp, %r15d
	movq	%rax, %rbx
	movl	0(%r13,%rax,4), %eax
	cmpl	%eax, %r15d
	jb	.L1146
	cmpl	%eax, %r15d
	jne	.L1148
	.p2align 4,,10
	.p2align 3
.L1150:
	leal	1(%rbx), %eax
	movq	(%rsp), %rdi
	movl	0(%r13,%rax,4), %eax
	leaq	(%rax,%rax,2), %rax
	leaq	(%r14,%rax,8), %r12
	movq	(%r12), %rsi
	call	strcmp@PLT
	testl	%eax, %eax
	je	.L1155
	leal	2(%rbx), %edx
	leal	0(%rbp,%r15), %eax
	movl	0(%r13,%rdx,4), %r15d
	movq	%rdx, %rbx
.L1154:
	cmpl	%eax, %r15d
	je	.L1150
.L1148:
	movq	8(%rsp), %rax
	addq	$24, %rsp
	.cfi_remember_state
	.cfi_def_cfa_offset 56
	popq	%rbx
	.cfi_def_cfa_offset 48
	popq	%rbp
	.cfi_def_cfa_offset 40
	popq	%r12
	.cfi_def_cfa_offset 32
	popq	%r13
	.cfi_def_cfa_offset 24
	popq	%r14
	.cfi_def_cfa_offset 16
	popq	%r15
	.cfi_def_cfa_offset 8
	ret
	.p2align 4,,10
	.p2align 3
.L1155:
	.cfi_restore_state
	movl	80(%rsp), %ebx
	movl	%ebx, %edi
	call	v_malloc
	movq	16(%r12), %rsi
	movslq	%ebx, %rdx
	movq	%rax, %rdi
	movq	%rax, 8(%rsp)
	call	memcpy@PLT
	jmp	.L1148
	.p2align 4,,10
	.p2align 3
.L1145:
	movl	0(%r13,%rsi,4), %eax
	jmp	.L1154
	.cfi_endproc
.LFE219:
	.size	map_get3, .-map_get3
	.section	.text.new_node,"ax",@progbits
	.p2align 4,,15
	.globl	new_node
	.type	new_node, @function
new_node:
.LFB232:
	.cfi_startproc
	subq	$296, %rsp
	.cfi_def_cfa_offset 304
	movl	$35, %ecx
	movq	%fs:40, %rax
	movq	%rax, 280(%rsp)
	xorl	%eax, %eax
	movq	%rsp, %rdi
	rep stosq
	movl	$280, %edi
	call	v_malloc
	movq	(%rsp), %rdx
	leaq	8(%rax), %rdi
	movq	%rax, %rcx
	movq	%rsp, %rsi
	andq	$-8, %rdi
	movq	%rdx, (%rax)
	movq	272(%rsp), %rdx
	subq	%rdi, %rcx
	subq	%rcx, %rsi
	addl	$280, %ecx
	shrl	$3, %ecx
	movq	%rdx, 272(%rax)
	rep movsq
	movq	280(%rsp), %rsi
	xorq	%fs:40, %rsi
	jne	.L1159
	addq	$296, %rsp
	.cfi_remember_state
	.cfi_def_cfa_offset 8
	ret
.L1159:
	.cfi_restore_state
	call	__stack_chk_fail@PLT
	.cfi_endproc
.LFE232:
	.size	new_node, .-new_node
	.section	.text.new_sorted_map,"ax",@progbits
	.p2align 4,,15
	.globl	new_sorted_map
	.type	new_sorted_map, @function
new_sorted_map:
.LFB230:
	.cfi_startproc
	pushq	%rbp
	.cfi_def_cfa_offset 16
	.cfi_offset 6, -16
	pushq	%rbx
	.cfi_def_cfa_offset 24
	.cfi_offset 3, -24
	movl	%edx, %ebp
	movq	%rdi, %rbx
	xorl	%eax, %eax
	subq	$8, %rsp
	.cfi_def_cfa_offset 32
	call	new_node
	movl	%ebp, (%rbx)
	movq	%rax, 8(%rbx)
	movq	%rbx, %rax
	movl	$0, 16(%rbx)
	addq	$8, %rsp
	.cfi_def_cfa_offset 24
	popq	%rbx
	.cfi_def_cfa_offset 16
	popq	%rbp
	.cfi_def_cfa_offset 8
	ret
	.cfi_endproc
.LFE230:
	.size	new_sorted_map, .-new_sorted_map
	.section	.text.mapnode_split_child,"ax",@progbits
	.p2align 4,,15
	.globl	mapnode_split_child
	.type	mapnode_split_child, @function
mapnode_split_child:
.LFB234:
	.cfi_startproc
	pushq	%r15
	.cfi_def_cfa_offset 16
	.cfi_offset 15, -16
	pushq	%r14
	.cfi_def_cfa_offset 24
	.cfi_offset 14, -24
	xorl	%eax, %eax
	pushq	%r13
	.cfi_def_cfa_offset 32
	.cfi_offset 13, -32
	pushq	%r12
	.cfi_def_cfa_offset 40
	.cfi_offset 12, -40
	movslq	%esi, %r13
	pushq	%rbp
	.cfi_def_cfa_offset 48
	.cfi_offset 6, -48
	pushq	%rbx
	.cfi_def_cfa_offset 56
	.cfi_offset 3, -56
	movq	%rdx, %rbp
	movq	%rdi, %rbx
	subq	$24, %rsp
	.cfi_def_cfa_offset 80
	call	new_node
	movq	%rax, %r12
	movl	_const_mid_index(%rip), %eax
	movl	%eax, %edx
	movl	%eax, 272(%r12)
	movl	%eax, 272(%rbp)
	subl	$1, %edx
	js	.L1163
	leal	5(%rax), %ecx
	movslq	%edx, %rdx
	movq	%rdx, %r9
	addq	$22, %rdx
	movslq	%ecx, %rcx
	salq	$4, %r9
	movq	%rcx, %rsi
	movq	176(%rbp,%rcx,8), %rcx
	salq	$4, %rsi
	movdqu	0(%rbp,%rsi), %xmm0
	movups	%xmm0, (%r12,%r9)
	movq	%rcx, (%r12,%rdx,8)
	leal	-2(%rax), %ecx
	cmpl	$-1, %ecx
	je	.L1163
	leal	4(%rax), %esi
	movslq	%ecx, %rcx
	movq	%rcx, %r10
	addq	$22, %rcx
	movslq	%esi, %rsi
	salq	$4, %r10
	movq	%rsi, %rdi
	movq	176(%rbp,%rsi,8), %rsi
	salq	$4, %rdi
	movdqu	0(%rbp,%rdi), %xmm0
	movups	%xmm0, (%r12,%r10)
	movq	%rsi, (%r12,%rcx,8)
	leal	-3(%rax), %esi
	cmpl	$-1, %esi
	je	.L1163
	leal	3(%rax), %edi
	movslq	%esi, %rsi
	movq	%rsi, %r15
	addq	$22, %rsi
	movslq	%edi, %rdi
	salq	$4, %r15
	movq	%rsi, 8(%rsp)
	movq	%rdi, %r8
	movq	176(%rbp,%rdi,8), %rdi
	movq	%r15, (%rsp)
	salq	$4, %r8
	movdqu	0(%rbp,%r8), %xmm0
	movups	%xmm0, (%r12,%r15)
	movq	%rdi, (%r12,%rsi,8)
	leal	-4(%rax), %esi
	cmpl	$-1, %esi
	je	.L1163
	leal	2(%rax), %edi
	movslq	%esi, %r8
	movq	%r8, %r11
	movslq	%edi, %rdi
	salq	$4, %r11
	movq	%rdi, %r14
	movq	176(%rbp,%rdi,8), %rdi
	salq	$4, %r14
	movdqu	0(%rbp,%r14), %xmm0
	movups	%xmm0, (%r12,%r11)
	movq	%rdi, 176(%r12,%r8,8)
	leal	-5(%rax), %r8d
	cmpl	$-1, %r8d
	je	.L1163
	movslq	%r8d, %r11
	leal	1(%rax), %edi
	movq	%r11, %r14
	salq	$4, %r14
	movslq	%edi, %rdi
	movq	%r14, %r15
	movq	%rdi, %r14
	movq	176(%rbp,%rdi,8), %rdi
	salq	$4, %r14
	movdqu	0(%rbp,%r14), %xmm0
	movups	%xmm0, (%r12,%r15)
	movq	%rdi, 176(%r12,%r11,8)
	leal	-6(%rax), %edi
	cmpl	$-1, %edi
	je	.L1163
	movslq	%eax, %r11
	movslq	%edi, %rdi
	movq	%r11, %r15
	movq	176(%rbp,%r11,8), %r11
	movq	%rdi, %r14
	salq	$4, %r15
	salq	$4, %r14
	movdqu	0(%rbp,%r15), %xmm0
	movups	%xmm0, (%r12,%r14)
	movq	%r11, 176(%r12,%rdi,8)
	leal	-7(%rax), %edi
	cmpl	$-1, %edi
	je	.L1163
	movslq	%edi, %rdi
	movq	0(%rbp,%rdx,8), %rdx
	movdqu	0(%rbp,%r9), %xmm0
	movq	%rdi, %r11
	salq	$4, %r11
	movups	%xmm0, (%r12,%r11)
	movq	%rdx, 176(%r12,%rdi,8)
	leal	-8(%rax), %edx
	cmpl	$-1, %edx
	je	.L1163
	movslq	%edx, %rdx
	movq	0(%rbp,%rcx,8), %rcx
	movq	%rdx, %rdi
	movdqu	0(%rbp,%r10), %xmm0
	salq	$4, %rdi
	movups	%xmm0, (%r12,%rdi)
	movq	%rcx, 176(%r12,%rdx,8)
	leal	-9(%rax), %edx
	cmpl	$-1, %edx
	je	.L1163
	movq	(%rsp), %r15
	movslq	%edx, %rdx
	movq	8(%rsp), %rdi
	movq	%rdx, %rcx
	salq	$4, %rcx
	movdqu	0(%rbp,%r15), %xmm0
	movups	%xmm0, (%r12,%rcx)
	movq	0(%rbp,%rdi,8), %rcx
	movq	%rcx, 176(%r12,%rdx,8)
	leal	-10(%rax), %edx
	cmpl	$-1, %edx
	je	.L1163
	movslq	%esi, %rsi
	movslq	%edx, %rdx
	subl	$11, %eax
	movq	%rsi, %rdi
	movq	%rdx, %rcx
	salq	$4, %rdi
	salq	$4, %rcx
	cmpl	$-1, %eax
	movdqu	0(%rbp,%rdi), %xmm0
	movups	%xmm0, (%r12,%rcx)
	movq	176(%rbp,%rsi,8), %rcx
	movq	%rcx, 176(%r12,%rdx,8)
	je	.L1163
	movslq	%r8d, %r8
	cltq
	movq	%r8, %rcx
	movq	%rax, %rdx
	salq	$4, %rcx
	salq	$4, %rdx
	movdqu	0(%rbp,%rcx), %xmm0
	movups	%xmm0, (%r12,%rdx)
	movq	176(%rbp,%r8,8), %rdx
	movq	%rdx, 176(%r12,%rax,8)
	.p2align 4,,10
	.p2align 3
.L1163:
	cmpq	$0, 264(%rbp)
	je	.L1164
	movl	_const_children_bytes(%rip), %edi
	call	v_malloc
	movq	%rax, 264(%r12)
	movq	264(%rbp), %rdx
	movq	88(%rdx), %rdx
	movq	%rdx, 40(%rax)
	movq	264(%rbp), %rdx
	movq	264(%r12), %rax
	movq	80(%rdx), %rdx
	movq	%rdx, 32(%rax)
	movq	264(%rbp), %rdx
	movq	264(%r12), %rax
	movq	72(%rdx), %rdx
	movq	%rdx, 24(%rax)
	movq	264(%rbp), %rdx
	movq	264(%r12), %rax
	movq	64(%rdx), %rdx
	movq	%rdx, 16(%rax)
	movq	264(%rbp), %rdx
	movq	264(%r12), %rax
	movq	56(%rdx), %rdx
	movq	%rdx, 8(%rax)
	movq	264(%rbp), %rdx
	movq	264(%r12), %rax
	movq	48(%rdx), %rdx
	movq	%rdx, (%rax)
.L1164:
	movq	264(%rbx), %rax
	testq	%rax, %rax
	je	.L1198
.L1165:
	movslq	272(%rbx), %rcx
	movq	(%rax,%rcx,8), %rdi
	leaq	0(,%rcx,8), %rsi
	cmpl	%r13d, %ecx
	movq	%rcx, %rdx
	movq	%rdi, 8(%rax,%rsi)
	jle	.L1166
	leal	-1(%rcx), %r8d
	movq	%rcx, %r9
	salq	$4, %r9
	movslq	%r8d, %rdi
	movq	%rdi, %rax
	salq	$4, %rax
	addq	%rbx, %rax
	cmpl	%r8d, %r13d
	movdqu	(%rax), %xmm0
	movups	%xmm0, (%rbx,%r9)
	leaq	(%rbx,%rsi), %r9
	movq	168(%r9), %r10
	movq	%r10, 176(%r9)
	movq	264(%rbx), %r9
	movq	-8(%r9,%rsi), %rsi
	movq	%rsi, (%r9,%rcx,8)
	jge	.L1166
	leal	-2(%rcx), %r8d
	leaq	0(,%rdi,8), %r9
	movslq	%r8d, %rsi
	movq	%rsi, %rcx
	salq	$4, %rcx
	addq	%rbx, %rcx
	cmpl	%r8d, %r13d
	movdqu	(%rcx), %xmm0
	movups	%xmm0, (%rax)
	leaq	(%rbx,%r9), %rax
	movq	168(%rax), %r10
	movq	%r10, 176(%rax)
	movq	264(%rbx), %rax
	movq	-8(%rax,%r9), %r9
	movq	%r9, (%rax,%rdi,8)
	jge	.L1166
	leal	-3(%rdx), %r8d
	leaq	0(,%rsi,8), %r9
	movslq	%r8d, %rdi
	movq	%rdi, %rax
	salq	$4, %rax
	addq	%rbx, %rax
	cmpl	%r8d, %r13d
	movdqu	(%rax), %xmm0
	movups	%xmm0, (%rcx)
	leaq	(%rbx,%r9), %rcx
	movq	168(%rcx), %r10
	movq	%r10, 176(%rcx)
	movq	264(%rbx), %rcx
	movq	-8(%rcx,%r9), %r9
	movq	%r9, (%rcx,%rsi,8)
	jge	.L1166
	leal	-4(%rdx), %r9d
	leaq	0(,%rdi,8), %r8
	movslq	%r9d, %rsi
	movq	%rsi, %rcx
	salq	$4, %rcx
	addq	%rbx, %rcx
	cmpl	%r9d, %r13d
	movdqu	(%rcx), %xmm0
	movups	%xmm0, (%rax)
	leaq	(%rbx,%r8), %rax
	movq	168(%rax), %r10
	movq	%r10, 176(%rax)
	movq	264(%rbx), %rax
	movq	-8(%rax,%r8), %r8
	movq	%r8, (%rax,%rdi,8)
	jge	.L1166
	leal	-5(%rdx), %r9d
	leaq	0(,%rsi,8), %rdi
	movslq	%r9d, %r8
	movq	%r8, %rax
	salq	$4, %rax
	addq	%rbx, %rax
	cmpl	%r9d, %r13d
	movdqu	(%rax), %xmm0
	movups	%xmm0, (%rcx)
	leaq	(%rbx,%rdi), %rcx
	movq	168(%rcx), %r10
	movq	%r10, 176(%rcx)
	movq	264(%rbx), %rcx
	movq	-8(%rcx,%rdi), %rdi
	movq	%rdi, (%rcx,%rsi,8)
	jge	.L1166
	leal	-6(%rdx), %r9d
	leaq	0(,%r8,8), %rcx
	movslq	%r9d, %rdi
	movq	%rdi, %rsi
	salq	$4, %rsi
	addq	%rbx, %rsi
	cmpl	%r9d, %r13d
	movdqu	(%rsi), %xmm0
	movups	%xmm0, (%rax)
	leaq	(%rbx,%rcx), %rax
	movq	168(%rax), %r10
	movq	%r10, 176(%rax)
	movq	264(%rbx), %rax
	movq	-8(%rax,%rcx), %rcx
	movq	%rcx, (%rax,%r8,8)
	jge	.L1166
	leal	-7(%rdx), %eax
	leaq	0(,%rdi,8), %r9
	movslq	%eax, %r8
	movq	%r8, %rcx
	salq	$4, %rcx
	addq	%rbx, %rcx
	cmpl	%eax, %r13d
	movdqu	(%rcx), %xmm0
	movups	%xmm0, (%rsi)
	leaq	(%rbx,%r9), %rsi
	movq	168(%rsi), %r10
	movq	%r10, 176(%rsi)
	movq	264(%rbx), %rsi
	movq	-8(%rsi,%r9), %r9
	movq	%r9, (%rsi,%rdi,8)
	jge	.L1166
	leal	-8(%rdx), %edi
	leaq	0(,%r8,8), %r9
	movslq	%edi, %rsi
	movq	%rsi, %rax
	salq	$4, %rax
	addq	%rbx, %rax
	cmpl	%edi, %r13d
	movdqu	(%rax), %xmm0
	movups	%xmm0, (%rcx)
	leaq	(%rbx,%r9), %rcx
	movq	168(%rcx), %r10
	movq	%r10, 176(%rcx)
	movq	264(%rbx), %rcx
	movq	-8(%rcx,%r9), %r9
	movq	%r9, (%rcx,%r8,8)
	jge	.L1166
	leal	-9(%rdx), %edi
	movslq	%edi, %rcx
	movq	%rcx, %r8
	salq	$4, %r8
	cmpl	%edi, %r13d
	movdqu	(%rbx,%r8), %xmm0
	leaq	0(,%rsi,8), %r8
	movups	%xmm0, (%rax)
	leaq	(%rbx,%r8), %rax
	movq	168(%rax), %r9
	movq	%r9, 176(%rax)
	movq	264(%rbx), %rax
	movq	-8(%rax,%r8), %r8
	movq	%r8, (%rax,%rsi,8)
	jge	.L1166
	leal	-10(%rdx), %eax
	leaq	0(,%rcx,8), %r9
	movq	%rcx, %r8
	salq	$4, %r8
	movslq	%eax, %rdi
	movq	%rdi, %rsi
	salq	$4, %rsi
	addq	%rbx, %rsi
	cmpl	%eax, %r13d
	movdqu	(%rsi), %xmm0
	movups	%xmm0, (%rbx,%r8)
	leaq	(%rbx,%r9), %r8
	movq	168(%r8), %r10
	movq	%r10, 176(%r8)
	movq	264(%rbx), %r8
	movq	-8(%r8,%r9), %r9
	movq	%r9, (%r8,%rcx,8)
	jge	.L1166
	leal	-11(%rdx), %eax
	leaq	0(,%rdi,8), %rcx
	cltq
	salq	$4, %rax
	movdqu	(%rbx,%rax), %xmm0
	leaq	(%rbx,%rcx), %rax
	movups	%xmm0, (%rsi)
	movq	168(%rax), %rsi
	movq	%rsi, 176(%rax)
	movq	264(%rbx), %rax
	movq	-8(%rax,%rcx), %rcx
	movq	%rcx, (%rax,%rdi,8)
.L1166:
	movslq	_const_mid_index(%rip), %rax
	movq	%r13, %rcx
	addl	$1, %edx
	salq	$4, %rcx
	movq	%rax, %rsi
	movq	176(%rbp,%rax,8), %rax
	salq	$4, %rsi
	movdqu	0(%rbp,%rsi), %xmm0
	movups	%xmm0, (%rbx,%rcx)
	movq	%rax, 176(%rbx,%r13,8)
	movq	264(%rbx), %rax
	movq	%rbp, (%rax,%r13,8)
	movq	264(%rbx), %rax
	movq	%r12, 8(%rax,%r13,8)
	movl	%edx, 272(%rbx)
	addq	$24, %rsp
	.cfi_remember_state
	.cfi_def_cfa_offset 56
	popq	%rbx
	.cfi_def_cfa_offset 48
	popq	%rbp
	.cfi_def_cfa_offset 40
	popq	%r12
	.cfi_def_cfa_offset 32
	popq	%r13
	.cfi_def_cfa_offset 24
	popq	%r14
	.cfi_def_cfa_offset 16
	popq	%r15
	.cfi_def_cfa_offset 8
	ret
	.p2align 4,,10
	.p2align 3
.L1198:
	.cfi_restore_state
	movl	_const_children_bytes(%rip), %edi
	call	v_malloc
	movq	%rax, 264(%rbx)
	jmp	.L1165
	.cfi_endproc
.LFE234:
	.size	mapnode_split_child, .-mapnode_split_child
	.section	.text.cstring_to_vstring,"ax",@progbits
	.p2align 4,,15
	.globl	cstring_to_vstring
	.type	cstring_to_vstring, @function
cstring_to_vstring:
.LFB257:
	.cfi_startproc
	pushq	%r13
	.cfi_def_cfa_offset 16
	.cfi_offset 13, -16
	pushq	%r12
	.cfi_def_cfa_offset 24
	.cfi_offset 12, -24
	movq	%rdi, %r12
	pushq	%rbp
	.cfi_def_cfa_offset 32
	.cfi_offset 6, -32
	pushq	%rbx
	.cfi_def_cfa_offset 40
	.cfi_offset 3, -40
	subq	$8, %rsp
	.cfi_def_cfa_offset 48
	call	strlen@PLT
	movl	%eax, %ebp
	movq	%rax, %rbx
	movslq	%eax, %r13
	addl	$1, %ebp
	je	.L1204
	movl	%ebp, %edi
	call	v_malloc
	movslq	%ebp, %rdx
	movq	%r12, %rsi
	movq	%rax, %rdi
	call	memcpy@PLT
	movb	$0, (%rax,%r13)
.L1202:
	addq	$8, %rsp
	.cfi_remember_state
	.cfi_def_cfa_offset 40
	movl	%ebx, %edx
	popq	%rbx
	.cfi_def_cfa_offset 32
	popq	%rbp
	.cfi_def_cfa_offset 24
	popq	%r12
	.cfi_def_cfa_offset 16
	popq	%r13
	.cfi_def_cfa_offset 8
	ret
	.p2align 4,,10
	.p2align 3
.L1204:
	.cfi_restore_state
	movl	$1, %esi
	movl	$1, %edi
	call	calloc@PLT
	testq	%rax, %rax
	movb	$0, (%rax,%r13)
	jne	.L1202
	call	tos.part.7
	.cfi_endproc
.LFE257:
	.size	cstring_to_vstring, .-cstring_to_vstring
	.section	.rodata.str1.1
.LC81:
	.string	"tos: nil string"
	.section	.text.tos_clone,"ax",@progbits
	.p2align 4,,15
	.globl	tos_clone
	.type	tos_clone, @function
tos_clone:
.LFB253:
	.cfi_startproc
	testq	%rdi, %rdi
	pushq	%r12
	.cfi_def_cfa_offset 16
	.cfi_offset 12, -16
	pushq	%rbp
	.cfi_def_cfa_offset 24
	.cfi_offset 6, -24
	pushq	%rbx
	.cfi_def_cfa_offset 32
	.cfi_offset 3, -32
	je	.L1243
	movq	%rdi, %rbx
	call	strlen@PLT
	leal	1(%rax), %edi
	movq	%rax, %rbp
	movl	%eax, %r12d
	call	v_malloc
	testl	%ebp, %ebp
	jle	.L1207
	leaq	16(%rbx), %rdx
	cmpq	%rdx, %rax
	leaq	16(%rax), %rdx
	setnb	%cl
	cmpq	%rdx, %rbx
	setnb	%dl
	orb	%dl, %cl
	je	.L1208
	cmpl	$22, %ebp
	jbe	.L1208
	movq	%rbx, %rdx
	leal	-1(%rbp), %esi
	negq	%rdx
	andl	$15, %edx
	leal	15(%rdx), %ecx
	cmpl	%ecx, %esi
	jb	.L1217
	testl	%edx, %edx
	je	.L1218
	movzbl	(%rbx), %ecx
	cmpl	$1, %edx
	movb	%cl, (%rax)
	je	.L1219
	movzbl	1(%rbx), %ecx
	cmpl	$2, %edx
	movb	%cl, 1(%rax)
	je	.L1220
	movzbl	2(%rbx), %ecx
	cmpl	$3, %edx
	movb	%cl, 2(%rax)
	je	.L1221
	movzbl	3(%rbx), %ecx
	cmpl	$4, %edx
	movb	%cl, 3(%rax)
	je	.L1222
	movzbl	4(%rbx), %ecx
	cmpl	$5, %edx
	movb	%cl, 4(%rax)
	je	.L1223
	movzbl	5(%rbx), %ecx
	cmpl	$6, %edx
	movb	%cl, 5(%rax)
	je	.L1224
	movzbl	6(%rbx), %ecx
	cmpl	$7, %edx
	movb	%cl, 6(%rax)
	je	.L1225
	movzbl	7(%rbx), %ecx
	cmpl	$8, %edx
	movb	%cl, 7(%rax)
	je	.L1226
	movzbl	8(%rbx), %ecx
	cmpl	$9, %edx
	movb	%cl, 8(%rax)
	je	.L1227
	movzbl	9(%rbx), %ecx
	cmpl	$10, %edx
	movb	%cl, 9(%rax)
	je	.L1228
	movzbl	10(%rbx), %ecx
	cmpl	$11, %edx
	movb	%cl, 10(%rax)
	je	.L1229
	movzbl	11(%rbx), %ecx
	cmpl	$12, %edx
	movb	%cl, 11(%rax)
	je	.L1230
	movzbl	12(%rbx), %ecx
	cmpl	$13, %edx
	movb	%cl, 12(%rax)
	je	.L1231
	movzbl	13(%rbx), %ecx
	cmpl	$15, %edx
	movb	%cl, 13(%rax)
	jne	.L1232
	movzbl	14(%rbx), %ecx
	movb	%cl, 14(%rax)
	movl	$15, %ecx
	.p2align 4,,10
	.p2align 3
.L1210:
	movl	%ebp, %r10d
	movl	%edx, %esi
	xorl	%edi, %edi
	subl	%edx, %r10d
	leaq	(%rbx,%rsi), %r8
	leaq	(%rax,%rsi), %rdx
	movl	%r10d, %r9d
	xorl	%esi, %esi
	shrl	$4, %r9d
	.p2align 4,,10
	.p2align 3
.L1212:
	movdqa	(%r8,%rsi), %xmm0
	addl	$1, %edi
	movups	%xmm0, (%rdx,%rsi)
	addq	$16, %rsi
	cmpl	%edi, %r9d
	ja	.L1212
	movl	%r10d, %edx
	andl	$-16, %edx
	addl	%edx, %ecx
	cmpl	%edx, %r10d
	je	.L1207
.L1209:
	movslq	%ecx, %rcx
	.p2align 4,,10
	.p2align 3
.L1214:
	movzbl	(%rbx,%rcx), %edx
	movb	%dl, (%rax,%rcx)
	addq	$1, %rcx
	cmpl	%ecx, %r12d
	jg	.L1214
.L1207:
	movslq	%ebp, %rdx
	movb	$0, (%rax,%rdx)
	movl	%ebp, %edx
	popq	%rbx
	.cfi_remember_state
	.cfi_def_cfa_offset 24
	popq	%rbp
	.cfi_def_cfa_offset 16
	popq	%r12
	.cfi_def_cfa_offset 8
	ret
	.p2align 4,,10
	.p2align 3
.L1219:
	.cfi_restore_state
	movl	$1, %ecx
	jmp	.L1210
	.p2align 4,,10
	.p2align 3
.L1208:
	leal	-1(%rbp), %esi
	xorl	%edx, %edx
	addq	$1, %rsi
	.p2align 4,,10
	.p2align 3
.L1215:
	movzbl	(%rbx,%rdx), %ecx
	movb	%cl, (%rax,%rdx)
	addq	$1, %rdx
	cmpq	%rsi, %rdx
	jne	.L1215
	movslq	%ebp, %rdx
	movb	$0, (%rax,%rdx)
	movl	%ebp, %edx
	popq	%rbx
	.cfi_remember_state
	.cfi_def_cfa_offset 24
	popq	%rbp
	.cfi_def_cfa_offset 16
	popq	%r12
	.cfi_def_cfa_offset 8
	ret
	.p2align 4,,10
	.p2align 3
.L1220:
	.cfi_restore_state
	movl	$2, %ecx
	jmp	.L1210
	.p2align 4,,10
	.p2align 3
.L1217:
	xorl	%ecx, %ecx
	jmp	.L1209
	.p2align 4,,10
	.p2align 3
.L1221:
	movl	$3, %ecx
	jmp	.L1210
	.p2align 4,,10
	.p2align 3
.L1222:
	movl	$4, %ecx
	jmp	.L1210
.L1225:
	movl	$7, %ecx
	jmp	.L1210
	.p2align 4,,10
	.p2align 3
.L1223:
	movl	$5, %ecx
	jmp	.L1210
.L1224:
	movl	$6, %ecx
	jmp	.L1210
.L1218:
	xorl	%ecx, %ecx
	jmp	.L1210
.L1226:
	movl	$8, %ecx
	jmp	.L1210
.L1227:
	movl	$9, %ecx
	jmp	.L1210
.L1228:
	movl	$10, %ecx
	jmp	.L1210
.L1229:
	movl	$11, %ecx
	jmp	.L1210
.L1230:
	movl	$12, %ecx
	jmp	.L1210
.L1231:
	movl	$13, %ecx
	jmp	.L1210
.L1232:
	movl	$14, %ecx
	jmp	.L1210
.L1243:
	leaq	.LC81(%rip), %rdi
	movl	$15, %esi
	call	v_panic
	.cfi_endproc
.LFE253:
	.size	tos_clone, .-tos_clone
	.section	.text.new_map_init,"ax",@progbits
	.p2align 4,,15
	.globl	new_map_init
	.type	new_map_init, @function
new_map_init:
.LFB211:
	.cfi_startproc
	pushq	%r15
	.cfi_def_cfa_offset 16
	.cfi_offset 15, -16
	pushq	%r14
	.cfi_def_cfa_offset 24
	.cfi_offset 14, -24
	movslq	%edx, %r14
	pushq	%r13
	.cfi_def_cfa_offset 32
	.cfi_offset 13, -32
	pushq	%r12
	.cfi_def_cfa_offset 40
	.cfi_offset 12, -40
	movq	%rdi, %r12
	pushq	%rbp
	.cfi_def_cfa_offset 48
	.cfi_offset 6, -48
	pushq	%rbx
	.cfi_def_cfa_offset 56
	.cfi_offset 3, -56
	movl	$192, %edi
	movl	%esi, %r13d
	movq	%rcx, %rbx
	movq	%r8, %rbp
	subq	$88, %rsp
	.cfi_def_cfa_offset 144
	movl	_const_init_cap(%rip), %r15d
	movq	%fs:40, %rax
	movq	%rax, 72(%rsp)
	xorl	%eax, %eax
	call	v_malloc
	movq	%rax, (%rsp)
	movl	_const_init_capicity(%rip), %eax
	leal	16(,%rax,4), %edi
	testl	%edi, %edi
	jle	.L1251
	movslq	%edi, %rdi
	movl	$1, %esi
	call	calloc@PLT
	movq	(%rsp), %xmm0
	movq	%rax, 8(%rsp)
	movhps	8(%rsp), %xmm0
	movl	$1296, %eax
	testl	%r13d, %r13d
	movl	%r14d, 16(%rsp)
	movl	%r15d, 20(%rsp)
	movw	%ax, 24(%rsp)
	movq	$8, 32(%rsp)
	movl	$0, 40(%rsp)
	movq	$4, 64(%rsp)
	movaps	%xmm0, 48(%rsp)
	jle	.L1246
	leal	-1(%r13), %eax
	leaq	16(%rsp), %r13
	salq	$4, %rax
	leaq	16(%rbx,%rax), %r15
	.p2align 4,,10
	.p2align 3
.L1247:
	movq	(%rbx), %rsi
	movq	8(%rbx), %rdx
	movq	%rbp, %rcx
	movq	%r13, %rdi
	addq	$16, %rbx
	addq	%r14, %rbp
	call	map_set
	cmpq	%r15, %rbx
	jne	.L1247
.L1246:
	movdqa	16(%rsp), %xmm0
	movq	64(%rsp), %rax
	movups	%xmm0, (%r12)
	movq	72(%rsp), %rcx
	xorq	%fs:40, %rcx
	movdqa	32(%rsp), %xmm0
	movq	%rax, 48(%r12)
	movq	%r12, %rax
	movups	%xmm0, 16(%r12)
	movdqa	48(%rsp), %xmm0
	movups	%xmm0, 32(%r12)
	jne	.L1252
	addq	$88, %rsp
	.cfi_remember_state
	.cfi_def_cfa_offset 56
	popq	%rbx
	.cfi_def_cfa_offset 48
	popq	%rbp
	.cfi_def_cfa_offset 40
	popq	%r12
	.cfi_def_cfa_offset 32
	popq	%r13
	.cfi_def_cfa_offset 24
	popq	%r14
	.cfi_def_cfa_offset 16
	popq	%r15
	.cfi_def_cfa_offset 8
	ret
.L1251:
	.cfi_restore_state
	call	vcalloc.part.5
.L1252:
	call	__stack_chk_fail@PLT
	.cfi_endproc
.LFE211:
	.size	new_map_init, .-new_map_init
	.section	.text.byte_hex,"ax",@progbits
	.p2align 4,,15
	.globl	byte_hex
	.type	byte_hex, @function
byte_hex:
.LFB194:
	.cfi_startproc
	testb	%dil, %dil
	jne	.L1254
	leaq	.LC80(%rip), %rax
	movl	$1, %edx
	ret
	.p2align 4,,10
	.p2align 3
.L1254:
	pushq	%rbx
	.cfi_def_cfa_offset 16
	.cfi_offset 3, -16
	movl	%edi, %ebx
	movl	$3, %edi
	call	v_malloc
	movl	$1, %esi
	movb	$0, 2(%rax)
	leaq	1(%rax), %rdx
	jmp	.L1258
	.p2align 4,,10
	.p2align 3
.L1259:
	movl	%edi, %esi
.L1258:
	movl	%ebx, %eax
	shrb	$4, %bl
	andl	$15, %eax
	leal	48(%rax), %edi
	leal	87(%rax), %ecx
	cmpb	$9, %al
	movq	%rdx, %rax
	cmovbe	%edi, %ecx
	subq	$1, %rdx
	leal	-1(%rsi), %edi
	movb	%cl, 1(%rdx)
	testb	%bl, %bl
	jne	.L1259
	movl	$2, %edx
	subl	%esi, %edx
	popq	%rbx
	.cfi_def_cfa_offset 8
	ret
	.cfi_endproc
.LFE194:
	.size	byte_hex, .-byte_hex
	.section	.text.u16_hex,"ax",@progbits
	.p2align 4,,15
	.globl	u16_hex
	.type	u16_hex, @function
u16_hex:
.LFB196:
	.cfi_startproc
	testw	%di, %di
	jne	.L1264
	leaq	.LC80(%rip), %rax
	movl	$1, %edx
	ret
	.p2align 4,,10
	.p2align 3
.L1264:
	pushq	%rbx
	.cfi_def_cfa_offset 16
	.cfi_offset 3, -16
	movl	%edi, %ebx
	movl	$6, %edi
	call	v_malloc
	movl	$4, %esi
	movb	$0, 5(%rax)
	leaq	4(%rax), %rdx
	jmp	.L1268
	.p2align 4,,10
	.p2align 3
.L1269:
	movl	%edi, %esi
.L1268:
	movl	%ebx, %eax
	shrw	$4, %bx
	andl	$15, %eax
	leal	48(%rax), %edi
	leal	87(%rax), %ecx
	cmpw	$9, %ax
	movq	%rdx, %rax
	cmovbe	%edi, %ecx
	subq	$1, %rdx
	leal	-1(%rsi), %edi
	movb	%cl, 1(%rdx)
	testw	%bx, %bx
	jne	.L1269
	movl	$5, %edx
	subl	%esi, %edx
	popq	%rbx
	.cfi_def_cfa_offset 8
	ret
	.cfi_endproc
.LFE196:
	.size	u16_hex, .-u16_hex
	.section	.text.u32_hex,"ax",@progbits
	.p2align 4,,15
	.globl	u32_hex
	.type	u32_hex, @function
u32_hex:
.LFB198:
	.cfi_startproc
	testl	%edi, %edi
	jne	.L1274
	leaq	.LC80(%rip), %rax
	movl	$1, %edx
	ret
	.p2align 4,,10
	.p2align 3
.L1274:
	pushq	%rbx
	.cfi_def_cfa_offset 16
	.cfi_offset 3, -16
	movl	%edi, %ebx
	movl	$11, %edi
	call	v_malloc
	movl	$9, %esi
	movb	$0, 10(%rax)
	leaq	9(%rax), %rdx
	jmp	.L1278
	.p2align 4,,10
	.p2align 3
.L1279:
	movl	%edi, %esi
.L1278:
	movl	%ebx, %eax
	shrl	$4, %ebx
	andl	$15, %eax
	leal	48(%rax), %edi
	leal	87(%rax), %ecx
	cmpl	$9, %eax
	movq	%rdx, %rax
	cmovbe	%edi, %ecx
	subq	$1, %rdx
	leal	-1(%rsi), %edi
	movb	%cl, 1(%rdx)
	testl	%ebx, %ebx
	jne	.L1279
	movl	$10, %edx
	subl	%esi, %edx
	popq	%rbx
	.cfi_def_cfa_offset 8
	ret
	.cfi_endproc
.LFE198:
	.size	u32_hex, .-u32_hex
	.section	.text.ptr_str,"ax",@progbits
	.p2align 4,,15
	.globl	ptr_str
	.type	ptr_str, @function
ptr_str:
.LFB184:
	.cfi_startproc
	testq	%rdi, %rdi
	pushq	%rbx
	.cfi_def_cfa_offset 16
	.cfi_offset 3, -16
	je	.L1288
	movq	%rdi, %rbx
	movl	$19, %edi
	call	v_malloc
	movl	$17, %edi
	movq	%rax, %r8
	movb	$0, 18(%rax)
	leaq	17(%rax), %rax
	jmp	.L1287
	.p2align 4,,10
	.p2align 3
.L1289:
	movl	%ecx, %edi
.L1287:
	movq	%rbx, %rcx
	shrq	$4, %rbx
	andl	$15, %ecx
	leal	48(%rcx), %esi
	leal	87(%rcx), %edx
	cmpq	$9, %rcx
	leal	-1(%rdi), %ecx
	cmovbe	%esi, %edx
	movq	%rax, %rsi
	subq	$1, %rax
	movb	%dl, 1(%rax)
	testq	%rbx, %rbx
	jne	.L1289
	movl	$19, %edx
	movl	$18, %ebx
	subl	%edi, %edx
	subl	%edi, %ebx
	movq	%r8, %rdi
	movslq	%edx, %rdx
	call	memmove@PLT
	movq	%rax, %r8
	movl	%ebx, %edx
	movq	%r8, %rax
	popq	%rbx
	.cfi_remember_state
	.cfi_def_cfa_offset 8
	ret
	.p2align 4,,10
	.p2align 3
.L1288:
	.cfi_restore_state
	leaq	.LC80(%rip), %r8
	movl	$1, %ebx
	movl	%ebx, %edx
	movq	%r8, %rax
	popq	%rbx
	.cfi_def_cfa_offset 8
	ret
	.cfi_endproc
.LFE184:
	.size	ptr_str, .-ptr_str
	.section	.text.u64_hex,"ax",@progbits
	.p2align 4,,15
	.globl	u64_hex
	.type	u64_hex, @function
u64_hex:
.LFB200:
	.cfi_startproc
	testq	%rdi, %rdi
	jne	.L1292
	leaq	.LC80(%rip), %rax
	movl	$1, %edx
	ret
	.p2align 4,,10
	.p2align 3
.L1292:
	pushq	%rbp
	.cfi_def_cfa_offset 16
	.cfi_offset 6, -16
	pushq	%rbx
	.cfi_def_cfa_offset 24
	.cfi_offset 3, -24
	movq	%rdi, %rbx
	movl	$19, %edi
	movl	$17, %ebp
	subq	$8, %rsp
	.cfi_def_cfa_offset 32
	call	v_malloc
	movq	%rax, %r8
	movb	$0, 18(%rax)
	leaq	17(%rax), %rdx
	jmp	.L1296
	.p2align 4,,10
	.p2align 3
.L1297:
	movl	%eax, %ebp
.L1296:
	movq	%rbx, %rsi
	shrq	$4, %rbx
	leal	-1(%rbp), %eax
	andl	$15, %esi
	leal	48(%rsi), %edi
	leal	87(%rsi), %ecx
	cmpq	$9, %rsi
	movq	%rdx, %rsi
	cmovbe	%edi, %ecx
	subq	$1, %rdx
	movb	%cl, 1(%rdx)
	testq	%rbx, %rbx
	jne	.L1297
	movl	$19, %edx
	movq	%r8, %rdi
	subl	%ebp, %edx
	movslq	%edx, %rdx
	call	memmove@PLT
	addq	$8, %rsp
	.cfi_def_cfa_offset 24
	movl	$18, %edx
	subl	%ebp, %edx
	popq	%rbx
	.cfi_def_cfa_offset 16
	popq	%rbp
	.cfi_def_cfa_offset 8
	ret
	.cfi_endproc
.LFE200:
	.size	u64_hex, .-u64_hex
	.section	.rodata.str1.8
	.align 8
.LC82:
	.string	"option size too big: %d (max is 400), this is a temporary limit"
	.section	.text.opt_ok,"ax",@progbits
	.p2align 4,,15
	.globl	opt_ok
	.type	opt_ok, @function
opt_ok:
.LFB226:
	.cfi_startproc
	pushq	%rbx
	.cfi_def_cfa_offset 16
	.cfi_offset 3, -16
	subq	$448, %rsp
	.cfi_def_cfa_offset 464
	movq	%fs:40, %rax
	movq	%rax, 440(%rsp)
	xorl	%eax, %eax
	cmpl	$399, %edx
	jg	.L1305
	movq	%rdi, %rbx
	xorl	%eax, %eax
	movq	%rsp, %rdi
	movl	$54, %ecx
	movq	%rsp, %r8
	movslq	%edx, %rdx
	rep stosq
	leaq	.LC37(%rip), %rax
	movl	$432, %ecx
	movq	%r8, %rdi
	movl	$1, 420(%rsp)
	movq	%rax, 400(%rsp)
	call	__memcpy_chk@PLT
	movq	%rbx, %rdi
	movq	%rax, %rsi
	movq	%rbx, %rax
	movq	440(%rsp), %rbx
	xorq	%fs:40, %rbx
	movl	$54, %ecx
	rep movsq
	jne	.L1306
	addq	$448, %rsp
	.cfi_remember_state
	.cfi_def_cfa_offset 16
	popq	%rbx
	.cfi_def_cfa_offset 8
	ret
.L1305:
	.cfi_restore_state
	leaq	.LC82(%rip), %rdi
	movl	%edx, %esi
	call	_STR
	movq	%rdx, %rsi
	movq	%rax, %rdi
	call	v_panic
.L1306:
	call	__stack_chk_fail@PLT
	.cfi_endproc
.LFE226:
	.size	opt_ok, .-opt_ok
	.section	.text.string_index,"ax",@progbits
	.p2align 4,,15
	.globl	string_index
	.type	string_index, @function
string_index:
.LFB288:
	.cfi_startproc
	pushq	%rbx
	.cfi_def_cfa_offset 16
	.cfi_offset 3, -16
	movq	%rdi, %rbx
	subq	$16, %rsp
	.cfi_def_cfa_offset 32
	movq	%fs:40, %rax
	movq	%rax, 8(%rsp)
	xorl	%eax, %eax
	testl	%r8d, %r8d
	je	.L1309
	cmpl	%r8d, %edx
	jge	.L1320
.L1309:
	xorl	%eax, %eax
	movl	$54, %ecx
	movq	%rbx, %rdi
	rep stosq
	leaq	.LC37(%rip), %rax
	movl	$1, 424(%rbx)
	movq	%rax, 400(%rbx)
.L1307:
	movq	%rbx, %rax
	movq	8(%rsp), %rbx
	xorq	%fs:40, %rbx
	jne	.L1321
	addq	$16, %rsp
	.cfi_remember_state
	.cfi_def_cfa_offset 16
	popq	%rbx
	.cfi_def_cfa_offset 8
	ret
	.p2align 4,,10
	.p2align 3
.L1320:
	.cfi_restore_state
	testl	%edx, %edx
	jle	.L1309
	movl	%r8d, %r9d
	movq	%rsi, %rdi
	leal	-1(%r8), %r8d
	leal	-1(%rdx), %eax
	movl	%edi, %r10d
	addq	$1, %r8
	subl	%esi, %r10d
	testl	%r9d, %r9d
	leaq	1(%rsi,%rax), %r11
	jle	.L1317
	.p2align 4,,10
	.p2align 3
.L1324:
	movzbl	(%rcx), %edx
	movl	$1, %eax
	cmpb	%dl, (%rdi)
	je	.L1313
	jmp	.L1314
	.p2align 4,,10
	.p2align 3
.L1322:
	movzbl	(%rdi,%rax), %edx
	addq	$1, %rax
	cmpb	-1(%rcx,%rax), %dl
	jne	.L1314
.L1313:
	cmpq	%rax, %r8
	movl	%eax, %edx
	jne	.L1322
	cmpl	%edx, %r9d
	je	.L1323
.L1314:
	addq	$1, %rdi
	cmpq	%r11, %rdi
	je	.L1309
	movl	%edi, %r10d
	subl	%esi, %r10d
	testl	%r9d, %r9d
	jg	.L1324
.L1317:
	xorl	%edx, %edx
	cmpl	%edx, %r9d
	jne	.L1314
	.p2align 4,,10
	.p2align 3
.L1323:
	leaq	4(%rsp), %rsi
	movl	$4, %edx
	movq	%rbx, %rdi
	movl	%r10d, 4(%rsp)
	call	opt_ok
	jmp	.L1307
.L1321:
	call	__stack_chk_fail@PLT
	.cfi_endproc
.LFE288:
	.size	string_index, .-string_index
	.section	.text.string_contains,"ax",@progbits
	.p2align 4,,15
	.globl	string_contains
	.type	string_contains, @function
string_contains:
.LFB296:
	.cfi_startproc
	subq	$456, %rsp
	.cfi_def_cfa_offset 464
	movq	%rsi, %rax
	movq	%rdi, %r9
	movq	%fs:40, %rsi
	movq	%rsi, 440(%rsp)
	xorl	%esi, %esi
	movq	%rcx, %r8
	movq	%r9, %rsi
	movq	%rdx, %rcx
	movq	%rsp, %rdi
	movq	%rax, %rdx
	call	string_index
	movl	420(%rsp), %eax
	testl	%eax, %eax
	setne	%al
	movq	440(%rsp), %rsi
	xorq	%fs:40, %rsi
	jne	.L1328
	movzbl	%al, %eax
	addq	$456, %rsp
	.cfi_remember_state
	.cfi_def_cfa_offset 8
	ret
.L1328:
	.cfi_restore_state
	call	__stack_chk_fail@PLT
	.cfi_endproc
.LFE296:
	.size	string_contains, .-string_contains
	.section	.text.string_last_index,"ax",@progbits
	.p2align 4,,15
	.globl	string_last_index
	.type	string_last_index, @function
string_last_index:
.LFB291:
	.cfi_startproc
	pushq	%rbx
	.cfi_def_cfa_offset 16
	.cfi_offset 3, -16
	movq	%rdi, %rbx
	subq	$16, %rsp
	.cfi_def_cfa_offset 32
	movq	%fs:40, %rax
	movq	%rax, 8(%rsp)
	xorl	%eax, %eax
	testl	%r8d, %r8d
	je	.L1337
	cmpl	%edx, %r8d
	jle	.L1330
.L1337:
	xorl	%eax, %eax
	movl	$54, %ecx
	movq	%rbx, %rdi
	rep stosq
	leaq	.LC37(%rip), %rax
	movl	$1, 424(%rbx)
	movq	%rax, 400(%rbx)
.L1329:
	movq	%rbx, %rax
	movq	8(%rsp), %rbx
	xorq	%fs:40, %rbx
	jne	.L1344
	addq	$16, %rsp
	.cfi_remember_state
	.cfi_def_cfa_offset 16
	popq	%rbx
	.cfi_def_cfa_offset 8
	ret
	.p2align 4,,10
	.p2align 3
.L1330:
	.cfi_restore_state
	subl	%r8d, %edx
	movl	%r8d, %r9d
	leal	-1(%r8), %r8d
	movslq	%edx, %rax
	addq	%rax, %rsi
	addq	$1, %r8
	testl	%r9d, %r9d
	jle	.L1340
	.p2align 4,,10
	.p2align 3
.L1347:
	movzbl	(%rsi), %edi
	movl	$1, %eax
	cmpb	%dil, (%rcx)
	je	.L1335
	jmp	.L1336
	.p2align 4,,10
	.p2align 3
.L1345:
	movzbl	(%rsi,%rax), %edi
	addq	$1, %rax
	cmpb	-1(%rcx,%rax), %dil
	jne	.L1336
.L1335:
	cmpq	%rax, %r8
	movl	%eax, %edi
	jne	.L1345
	cmpl	%edi, %r9d
	je	.L1346
.L1336:
	subl	$1, %edx
	subq	$1, %rsi
	cmpl	$-1, %edx
	je	.L1337
	testl	%r9d, %r9d
	jg	.L1347
.L1340:
	xorl	%edi, %edi
	cmpl	%edi, %r9d
	jne	.L1336
	.p2align 4,,10
	.p2align 3
.L1346:
	leaq	4(%rsp), %rsi
	movl	%edx, 4(%rsp)
	movq	%rbx, %rdi
	movl	$4, %edx
	call	opt_ok
	jmp	.L1329
.L1344:
	call	__stack_chk_fail@PLT
	.cfi_endproc
.LFE291:
	.size	string_last_index, .-string_last_index
	.section	.text.string_index_any,"ax",@progbits
	.p2align 4,,15
	.globl	string_index_any
	.type	string_index_any, @function
string_index_any:
.LFB290:
	.cfi_startproc
	pushq	%r15
	.cfi_def_cfa_offset 16
	.cfi_offset 15, -16
	pushq	%r14
	.cfi_def_cfa_offset 24
	.cfi_offset 14, -24
	pushq	%r13
	.cfi_def_cfa_offset 32
	.cfi_offset 13, -32
	pushq	%r12
	.cfi_def_cfa_offset 40
	.cfi_offset 12, -40
	pushq	%rbp
	.cfi_def_cfa_offset 48
	.cfi_offset 6, -48
	pushq	%rbx
	.cfi_def_cfa_offset 56
	.cfi_offset 3, -56
	subq	$488, %rsp
	.cfi_def_cfa_offset 544
	movq	%fs:40, %rax
	movq	%rax, 472(%rsp)
	xorl	%eax, %eax
	testl	%ecx, %ecx
	jle	.L1355
	leal	-1(%rcx), %eax
	leaq	32(%rsp), %r14
	leaq	28(%rsp), %r13
	movq	%rdi, %r12
	movl	%esi, %ebp
	movq	%rdx, %rbx
	leaq	1(%rdx,%rax), %rax
	movq	%rax, (%rsp)
	leal	-1(%rsi), %eax
	movl	%eax, 12(%rsp)
.L1354:
	movzbl	(%rbx), %r15d
	movl	$2, %edi
	call	v_malloc
	testl	%ebp, %ebp
	movb	$0, 1(%rax)
	movb	%r15b, (%rax)
	jle	.L1351
	movl	12(%rsp), %ecx
	xorl	%eax, %eax
	addq	$1, %rcx
.L1357:
	cmpb	(%r12,%rax), %r15b
	jne	.L1364
	movl	$4, %edx
	movq	%r13, %rsi
	movq	%r14, %rdi
	movl	%eax, 28(%rsp)
	call	opt_ok
	movl	452(%rsp), %eax
	testl	%eax, %eax
	je	.L1351
	movl	32(%rsp), %eax
.L1348:
	movq	472(%rsp), %rdi
	xorq	%fs:40, %rdi
	jne	.L1365
	addq	$488, %rsp
	.cfi_remember_state
	.cfi_def_cfa_offset 56
	popq	%rbx
	.cfi_def_cfa_offset 48
	popq	%rbp
	.cfi_def_cfa_offset 40
	popq	%r12
	.cfi_def_cfa_offset 32
	popq	%r13
	.cfi_def_cfa_offset 24
	popq	%r14
	.cfi_def_cfa_offset 16
	popq	%r15
	.cfi_def_cfa_offset 8
	ret
	.p2align 4,,10
	.p2align 3
.L1364:
	.cfi_restore_state
	addq	$1, %rax
	cmpq	%rax, %rcx
	jne	.L1357
.L1351:
	addq	$1, %rbx
	cmpq	(%rsp), %rbx
	jne	.L1354
.L1355:
	movl	$-1, %eax
	jmp	.L1348
.L1365:
	call	__stack_chk_fail@PLT
	.cfi_endproc
.LFE290:
	.size	string_index_any, .-string_index_any
	.section	.rodata.str1.8
	.align 8
.LC83:
	.string	"substr(%d, %d) out of bounds (len=%d)"
	.section	.text.string_substr,"ax",@progbits
	.p2align 4,,15
	.globl	string_substr
	.type	string_substr, @function
string_substr:
.LFB286:
	.cfi_startproc
	pushq	%r12
	.cfi_def_cfa_offset 16
	.cfi_offset 12, -16
	cmpl	%ecx, %edx
	movl	%edx, %r12d
	setg	%dl
	cmpl	%esi, %r12d
	pushq	%rbp
	.cfi_def_cfa_offset 24
	.cfi_offset 6, -24
	setg	%al
	pushq	%rbx
	.cfi_def_cfa_offset 32
	.cfi_offset 3, -32
	movl	%ecx, %ebx
	orb	%al, %dl
	jne	.L1367
	cmpl	%esi, %ecx
	jg	.L1367
	testl	%r12d, %r12d
	js	.L1367
	testl	%ecx, %ecx
	js	.L1367
	subl	%r12d, %ebx
	movq	%rdi, %rbp
	leal	1(%rbx), %edi
	call	v_malloc
	testl	%ebx, %ebx
	jle	.L1370
	movslq	%r12d, %r9
	leaq	16(%r9,%rbp), %rdx
	leaq	0(%rbp,%r9), %rdi
	cmpq	%rdx, %rax
	leaq	16(%rax), %rdx
	setnb	%cl
	cmpq	%rdx, %rdi
	setnb	%dl
	orb	%dl, %cl
	je	.L1371
	cmpl	$22, %ebx
	jbe	.L1371
	movq	%rdi, %rcx
	leal	-1(%rbx), %esi
	negq	%rcx
	andl	$15, %ecx
	leal	15(%rcx), %edx
	cmpl	%edx, %esi
	jb	.L1380
	testl	%ecx, %ecx
	je	.L1381
	movzbl	(%rdi), %edx
	cmpl	$1, %ecx
	movb	%dl, (%rax)
	je	.L1382
	leal	1(%r12), %edx
	cmpl	$2, %ecx
	movslq	%edx, %rdx
	movzbl	0(%rbp,%rdx), %edx
	movb	%dl, 1(%rax)
	je	.L1383
	leal	2(%r12), %edx
	cmpl	$3, %ecx
	movslq	%edx, %rdx
	movzbl	0(%rbp,%rdx), %edx
	movb	%dl, 2(%rax)
	je	.L1384
	leal	3(%r12), %edx
	cmpl	$4, %ecx
	movslq	%edx, %rdx
	movzbl	0(%rbp,%rdx), %edx
	movb	%dl, 3(%rax)
	je	.L1385
	leal	4(%r12), %edx
	cmpl	$5, %ecx
	movslq	%edx, %rdx
	movzbl	0(%rbp,%rdx), %edx
	movb	%dl, 4(%rax)
	je	.L1386
	leal	5(%r12), %edx
	cmpl	$6, %ecx
	movslq	%edx, %rdx
	movzbl	0(%rbp,%rdx), %edx
	movb	%dl, 5(%rax)
	je	.L1387
	leal	6(%r12), %edx
	cmpl	$7, %ecx
	movslq	%edx, %rdx
	movzbl	0(%rbp,%rdx), %edx
	movb	%dl, 6(%rax)
	je	.L1388
	leal	7(%r12), %edx
	cmpl	$8, %ecx
	movslq	%edx, %rdx
	movzbl	0(%rbp,%rdx), %edx
	movb	%dl, 7(%rax)
	je	.L1389
	leal	8(%r12), %edx
	cmpl	$9, %ecx
	movslq	%edx, %rdx
	movzbl	0(%rbp,%rdx), %edx
	movb	%dl, 8(%rax)
	je	.L1390
	leal	9(%r12), %edx
	cmpl	$10, %ecx
	movslq	%edx, %rdx
	movzbl	0(%rbp,%rdx), %edx
	movb	%dl, 9(%rax)
	je	.L1391
	leal	10(%r12), %edx
	cmpl	$11, %ecx
	movslq	%edx, %rdx
	movzbl	0(%rbp,%rdx), %edx
	movb	%dl, 10(%rax)
	je	.L1392
	leal	11(%r12), %edx
	cmpl	$12, %ecx
	movslq	%edx, %rdx
	movzbl	0(%rbp,%rdx), %edx
	movb	%dl, 11(%rax)
	je	.L1393
	leal	12(%r12), %edx
	cmpl	$13, %ecx
	movslq	%edx, %rdx
	movzbl	0(%rbp,%rdx), %edx
	movb	%dl, 12(%rax)
	je	.L1394
	leal	13(%r12), %edx
	cmpl	$15, %ecx
	movslq	%edx, %rdx
	movzbl	0(%rbp,%rdx), %edx
	movb	%dl, 13(%rax)
	jne	.L1395
	leal	14(%r12), %edx
	movl	$15, %esi
	movslq	%edx, %rdx
	movzbl	0(%rbp,%rdx), %edx
	movb	%dl, 14(%rax)
	.p2align 4,,10
	.p2align 3
.L1373:
	movl	%ebx, %r11d
	movl	%ecx, %r8d
	xorl	%edx, %edx
	subl	%ecx, %r11d
	addq	%r8, %r9
	xorl	%ecx, %ecx
	movl	%r11d, %r10d
	addq	%r9, %rbp
	addq	%rax, %r8
	shrl	$4, %r10d
	.p2align 4,,10
	.p2align 3
.L1375:
	movdqa	0(%rbp,%rdx), %xmm0
	addl	$1, %ecx
	movups	%xmm0, (%r8,%rdx)
	addq	$16, %rdx
	cmpl	%ecx, %r10d
	ja	.L1375
	movl	%r11d, %edx
	andl	$-16, %edx
	addl	%edx, %esi
	cmpl	%edx, %r11d
	je	.L1370
.L1372:
	movslq	%esi, %rsi
	.p2align 4,,10
	.p2align 3
.L1377:
	movzbl	(%rdi,%rsi), %edx
	movb	%dl, (%rax,%rsi)
	addq	$1, %rsi
	cmpl	%esi, %ebx
	jg	.L1377
.L1370:
	movslq	%ebx, %rdx
	movb	$0, (%rax,%rdx)
	movl	%ebx, %edx
	popq	%rbx
	.cfi_remember_state
	.cfi_def_cfa_offset 24
	popq	%rbp
	.cfi_def_cfa_offset 16
	popq	%r12
	.cfi_def_cfa_offset 8
	ret
	.p2align 4,,10
	.p2align 3
.L1382:
	.cfi_restore_state
	movl	$1, %esi
	jmp	.L1373
	.p2align 4,,10
	.p2align 3
.L1371:
	leal	-1(%rbx), %esi
	xorl	%edx, %edx
	addq	$1, %rsi
	.p2align 4,,10
	.p2align 3
.L1378:
	movzbl	(%rdi,%rdx), %ecx
	movb	%cl, (%rax,%rdx)
	addq	$1, %rdx
	cmpq	%rsi, %rdx
	jne	.L1378
	movslq	%ebx, %rdx
	movb	$0, (%rax,%rdx)
	movl	%ebx, %edx
	popq	%rbx
	.cfi_remember_state
	.cfi_def_cfa_offset 24
	popq	%rbp
	.cfi_def_cfa_offset 16
	popq	%r12
	.cfi_def_cfa_offset 8
	ret
	.p2align 4,,10
	.p2align 3
.L1383:
	.cfi_restore_state
	movl	$2, %esi
	jmp	.L1373
	.p2align 4,,10
	.p2align 3
.L1380:
	xorl	%esi, %esi
	jmp	.L1372
	.p2align 4,,10
	.p2align 3
.L1384:
	movl	$3, %esi
	jmp	.L1373
	.p2align 4,,10
	.p2align 3
.L1385:
	movl	$4, %esi
	jmp	.L1373
.L1388:
	movl	$7, %esi
	jmp	.L1373
	.p2align 4,,10
	.p2align 3
.L1386:
	movl	$5, %esi
	jmp	.L1373
.L1387:
	movl	$6, %esi
	jmp	.L1373
.L1381:
	xorl	%esi, %esi
	jmp	.L1373
.L1389:
	movl	$8, %esi
	jmp	.L1373
.L1390:
	movl	$9, %esi
	jmp	.L1373
.L1391:
	movl	$10, %esi
	jmp	.L1373
.L1392:
	movl	$11, %esi
	jmp	.L1373
.L1393:
	movl	$12, %esi
	jmp	.L1373
.L1394:
	movl	$13, %esi
	jmp	.L1373
.L1395:
	movl	$14, %esi
	jmp	.L1373
.L1367:
	leaq	.LC83(%rip), %rdi
	movl	%esi, %ecx
	movl	%ebx, %edx
	movl	%r12d, %esi
	xorl	%eax, %eax
	call	_STR
	movq	%rdx, %rsi
	movq	%rax, %rdi
	call	v_panic
	.cfi_endproc
.LFE286:
	.size	string_substr, .-string_substr
	.section	.text.string_replace_once,"ax",@progbits
	.p2align 4,,15
	.globl	string_replace_once
	.type	string_replace_once, @function
string_replace_once:
.LFB258:
	.cfi_startproc
	pushq	%r15
	.cfi_def_cfa_offset 16
	.cfi_offset 15, -16
	pushq	%r14
	.cfi_def_cfa_offset 24
	.cfi_offset 14, -24
	movq	%r9, %r14
	pushq	%r13
	.cfi_def_cfa_offset 32
	.cfi_offset 13, -32
	pushq	%r12
	.cfi_def_cfa_offset 40
	.cfi_offset 12, -40
	movq	%rcx, %r12
	pushq	%rbp
	.cfi_def_cfa_offset 48
	.cfi_offset 6, -48
	pushq	%rbx
	.cfi_def_cfa_offset 56
	.cfi_offset 3, -56
	movq	%rdi, %rbp
	movq	%rsi, %rbx
	movq	%rdx, %rcx
	movq	%r8, %r13
	subq	$472, %rsp
	.cfi_def_cfa_offset 528
	movq	%r12, %r8
	movq	%rbp, %rsi
	leaq	16(%rsp), %rdi
	movq	%rbx, %rdx
	movq	%fs:40, %rax
	movq	%rax, 456(%rsp)
	xorl	%eax, %eax
	call	string_index
	movl	436(%rsp), %eax
	testl	%eax, %eax
	jne	.L1407
	movq	456(%rsp), %rcx
	xorq	%fs:40, %rcx
	movq	%rbp, %rax
	movq	%rbx, %rdx
	jne	.L1411
	addq	$472, %rsp
	.cfi_remember_state
	.cfi_def_cfa_offset 56
	popq	%rbx
	.cfi_def_cfa_offset 48
	popq	%rbp
	.cfi_def_cfa_offset 40
	popq	%r12
	.cfi_def_cfa_offset 32
	popq	%r13
	.cfi_def_cfa_offset 24
	popq	%r14
	.cfi_def_cfa_offset 16
	popq	%r15
	.cfi_def_cfa_offset 8
	ret
	.p2align 4,,10
	.p2align 3
.L1407:
	.cfi_restore_state
	movl	16(%rsp), %r15d
	movl	%ebx, %ecx
	movq	%rbp, %rdi
	movq	%rbx, %rsi
	leal	(%r15,%r12), %edx
	call	string_substr
	movl	%r15d, %ecx
	movq	%rdx, 8(%rsp)
	movq	%rbp, %rdi
	xorl	%edx, %edx
	movq	%rbx, %rsi
	movq	%rax, (%rsp)
	call	string_substr
	movq	%r14, %rcx
	movq	%rdx, %rsi
	movq	%rax, %rdi
	movq	%r13, %rdx
	call	string_add
	movq	456(%rsp), %rcx
	xorq	%fs:40, %rcx
	jne	.L1411
	movq	%rdx, %rsi
	movq	8(%rsp), %rcx
	movq	(%rsp), %rdx
	addq	$472, %rsp
	.cfi_remember_state
	.cfi_def_cfa_offset 56
	movq	%rax, %rdi
	popq	%rbx
	.cfi_def_cfa_offset 48
	popq	%rbp
	.cfi_def_cfa_offset 40
	popq	%r12
	.cfi_def_cfa_offset 32
	popq	%r13
	.cfi_def_cfa_offset 24
	popq	%r14
	.cfi_def_cfa_offset 16
	popq	%r15
	.cfi_def_cfa_offset 8
	jmp	string_add
.L1411:
	.cfi_restore_state
	call	__stack_chk_fail@PLT
	.cfi_endproc
.LFE258:
	.size	string_replace_once, .-string_replace_once
	.section	.text.string_split_into_lines,"ax",@progbits
	.p2align 4,,15
	.globl	string_split_into_lines
	.type	string_split_into_lines, @function
string_split_into_lines:
.LFB282:
	.cfi_startproc
	pushq	%r15
	.cfi_def_cfa_offset 16
	.cfi_offset 15, -16
	pushq	%r14
	.cfi_def_cfa_offset 24
	.cfi_offset 14, -24
	movl	%edx, %r15d
	pushq	%r13
	.cfi_def_cfa_offset 32
	.cfi_offset 13, -32
	pushq	%r12
	.cfi_def_cfa_offset 40
	.cfi_offset 12, -40
	movq	%rdi, %r13
	pushq	%rbp
	.cfi_def_cfa_offset 48
	.cfi_offset 6, -48
	pushq	%rbx
	.cfi_def_cfa_offset 56
	.cfi_offset 3, -56
	movq	%rdx, %r12
	movl	$16, %edi
	subq	$88, %rsp
	.cfi_def_cfa_offset 144
	movq	%rsi, 8(%rsp)
	movl	$1, %esi
	movq	%fs:40, %rax
	movq	%rax, 72(%rsp)
	xorl	%eax, %eax
	call	calloc@PLT
	cmpl	$0, %r12d
	movq	%rax, 48(%rsp)
	movabsq	$4294967296, %rax
	movq	%rax, 56(%rsp)
	movl	$16, 64(%rsp)
	je	.L1414
	movq	8(%rsp), %r8
	jle	.L1414
	leaq	32(%rsp), %rax
	leal	-1(%r12), %r14d
	xorl	%ebx, %ebx
	xorl	%edx, %edx
	movq	%rax, 16(%rsp)
	leaq	48(%rsp), %rax
	movq	%rax, 24(%rsp)
	jmp	.L1424
	.p2align 4,,10
	.p2align 3
.L1417:
	cmpl	%ebx, %r14d
	leal	1(%rbx), %ebp
	sete	%cl
	testb	%sil, %sil
	jne	.L1427
	testb	%cl, %cl
	jne	.L1427
.L1420:
	cmpl	%ebp, %r15d
	movl	%ebp, %ebx
	jle	.L1414
.L1424:
	movslq	%ebx, %rcx
	movzbl	(%r8,%rcx), %eax
	cmpb	$10, %al
	sete	%sil
	cmpb	$13, %al
	jne	.L1417
	cmpl	%ebx, %r14d
	je	.L1417
	cmpb	$10, 1(%r8,%rcx)
	leal	1(%rbx), %ebp
	jne	.L1420
	movabsq	$-4294967296, %rdi
	movl	%r15d, %eax
	movl	%ebx, %ecx
	andq	%rdi, %r12
	movq	%r8, %rdi
	movq	%r8, 8(%rsp)
	orq	%rax, %r12
	leal	2(%rbx), %ebp
	movq	%r12, %rsi
	call	string_substr
	movq	16(%rsp), %rsi
	movq	24(%rsp), %rdi
	movq	%rdx, 40(%rsp)
	movq	%rax, 32(%rsp)
	call	array_push
	movq	8(%rsp), %r8
	movl	%ebp, %edx
.L1446:
	cmpl	%ebp, %r15d
	movl	%ebp, %ebx
	jg	.L1424
.L1414:
	movq	64(%rsp), %rax
	movdqa	48(%rsp), %xmm0
	movq	72(%rsp), %rdx
	xorq	%fs:40, %rdx
	movq	%rax, 16(%r13)
	movq	%r13, %rax
	movups	%xmm0, 0(%r13)
	jne	.L1445
	addq	$88, %rsp
	.cfi_remember_state
	.cfi_def_cfa_offset 56
	popq	%rbx
	.cfi_def_cfa_offset 48
	popq	%rbp
	.cfi_def_cfa_offset 40
	popq	%r12
	.cfi_def_cfa_offset 32
	popq	%r13
	.cfi_def_cfa_offset 24
	popq	%r14
	.cfi_def_cfa_offset 16
	popq	%r15
	.cfi_def_cfa_offset 8
	ret
.L1445:
	.cfi_restore_state
	call	__stack_chk_fail@PLT
.L1427:
	cmpb	$10, %al
	je	.L1428
	testb	%cl, %cl
	je	.L1428
.L1422:
	movabsq	$-4294967296, %rdi
	movl	%r15d, %eax
	movl	%ebp, %ecx
	andq	%rdi, %r12
	movq	%r8, %rdi
	movq	%r8, 8(%rsp)
	orq	%rax, %r12
	addl	$1, %ebp
	movq	%r12, %rsi
	call	string_substr
	movq	16(%rsp), %rsi
	movq	24(%rsp), %rdi
	movq	%rdx, 40(%rsp)
	movq	%rax, 32(%rsp)
	call	array_push
	movq	8(%rsp), %r8
	movl	%ebp, %edx
	jmp	.L1446
.L1428:
	movl	%ebx, %ebp
	jmp	.L1422
	.cfi_endproc
.LFE282:
	.size	string_split_into_lines, .-string_split_into_lines
	.section	.text.string_left,"ax",@progbits
	.p2align 4,,15
	.globl	string_left
	.type	string_left, @function
string_left:
.LFB283:
	.cfi_startproc
	cmpl	%esi, %edx
	jl	.L1451
	movq	%rdi, %rax
	movq	%rsi, %rdx
	ret
	.p2align 4,,10
	.p2align 3
.L1451:
	movl	%edx, %ecx
	xorl	%edx, %edx
	jmp	string_substr
	.cfi_endproc
.LFE283:
	.size	string_left, .-string_left
	.section	.text.string_all_before,"ax",@progbits
	.p2align 4,,15
	.globl	string_all_before
	.type	string_all_before, @function
string_all_before:
.LFB341:
	.cfi_startproc
	pushq	%r12
	.cfi_def_cfa_offset 16
	.cfi_offset 12, -16
	pushq	%rbp
	.cfi_def_cfa_offset 24
	.cfi_offset 6, -24
	movq	%rdi, %rbp
	pushq	%rbx
	.cfi_def_cfa_offset 32
	.cfi_offset 3, -32
	movq	%rsi, %rbx
	movq	%rcx, %r8
	movl	%esi, %r12d
	movq	%rdx, %rcx
	movq	%rbp, %rsi
	subq	$448, %rsp
	.cfi_def_cfa_offset 480
	movq	%rbx, %rdx
	movq	%rsp, %rdi
	movq	%fs:40, %rax
	movq	%rax, 440(%rsp)
	xorl	%eax, %eax
	call	string_index
	movl	420(%rsp), %eax
	testl	%eax, %eax
	je	.L1459
	movl	(%rsp), %ecx
	cmpl	%ebx, %ecx
	jl	.L1455
	movq	%rbp, %rax
	movq	%rbx, %rdx
.L1456:
	movabsq	$-4294967296, %rcx
	movl	%r12d, %ebx
	andq	%rcx, %rdx
	orq	%rbx, %rdx
.L1454:
	movq	440(%rsp), %rsi
	xorq	%fs:40, %rsi
	jne	.L1460
	addq	$448, %rsp
	.cfi_remember_state
	.cfi_def_cfa_offset 32
	popq	%rbx
	.cfi_def_cfa_offset 24
	popq	%rbp
	.cfi_def_cfa_offset 16
	popq	%r12
	.cfi_def_cfa_offset 8
	ret
	.p2align 4,,10
	.p2align 3
.L1459:
	.cfi_restore_state
	movq	%rbp, %rax
	movq	%rbx, %rdx
	jmp	.L1454
	.p2align 4,,10
	.p2align 3
.L1455:
	xorl	%edx, %edx
	movq	%rbp, %rdi
	movq	%rbx, %rsi
	call	string_substr
	movl	%edx, %r12d
	jmp	.L1456
.L1460:
	call	__stack_chk_fail@PLT
	.cfi_endproc
.LFE341:
	.size	string_all_before, .-string_all_before
	.section	.text.string_all_before_last,"ax",@progbits
	.p2align 4,,15
	.globl	string_all_before_last
	.type	string_all_before_last, @function
string_all_before_last:
.LFB342:
	.cfi_startproc
	pushq	%rbp
	.cfi_def_cfa_offset 16
	.cfi_offset 6, -16
	pushq	%rbx
	.cfi_def_cfa_offset 24
	.cfi_offset 3, -24
	movq	%rdi, %rax
	movq	%rsi, %rbx
	subq	$488, %rsp
	.cfi_def_cfa_offset 512
	movq	%fs:40, %rdi
	movq	%rdi, 472(%rsp)
	xorl	%edi, %edi
	testl	%ecx, %ecx
	je	.L1462
	cmpl	%ecx, %esi
	jge	.L1480
.L1462:
	movq	%rbx, %rdx
.L1469:
	movq	472(%rsp), %rbx
	xorq	%fs:40, %rbx
	jne	.L1481
	addq	$488, %rsp
	.cfi_remember_state
	.cfi_def_cfa_offset 24
	popq	%rbx
	.cfi_def_cfa_offset 16
	popq	%rbp
	.cfi_def_cfa_offset 8
	ret
	.p2align 4,,10
	.p2align 3
.L1480:
	.cfi_restore_state
	movl	%esi, %r9d
	subl	%ecx, %r9d
	js	.L1462
	leal	-1(%rcx), %r8d
	movl	%ecx, %r10d
	movslq	%r9d, %rdi
	addq	%rax, %rdi
	movl	%esi, %ebp
	addq	$1, %r8
	testl	%r10d, %r10d
	jle	.L1473
	.p2align 4,,10
	.p2align 3
.L1484:
	movzbl	(%rdi), %esi
	movl	$1, %ecx
	cmpb	%sil, (%rdx)
	je	.L1465
	jmp	.L1466
	.p2align 4,,10
	.p2align 3
.L1482:
	movzbl	(%rdi,%rcx), %esi
	addq	$1, %rcx
	cmpb	-1(%rdx,%rcx), %sil
	jne	.L1466
.L1465:
	cmpq	%rcx, %r8
	movl	%ecx, %esi
	jne	.L1482
	cmpl	%r10d, %esi
	je	.L1483
.L1466:
	subl	$1, %r9d
	subq	$1, %rdi
	cmpl	$-1, %r9d
	je	.L1462
	testl	%r10d, %r10d
	jg	.L1484
.L1473:
	xorl	%esi, %esi
	cmpl	%r10d, %esi
	jne	.L1466
	.p2align 4,,10
	.p2align 3
.L1483:
	leaq	32(%rsp), %rdi
	leaq	28(%rsp), %rsi
	movl	$4, %edx
	movq	%rax, 8(%rsp)
	movl	%r9d, 28(%rsp)
	call	opt_ok
	movl	452(%rsp), %eax
	movl	32(%rsp), %ecx
	testl	%eax, %eax
	movq	8(%rsp), %rax
	je	.L1462
	cmpl	%ecx, %ebx
	movq	%rbx, %rdx
	jg	.L1485
.L1471:
	movabsq	$-4294967296, %rcx
	movl	%ebp, %ebx
	andq	%rcx, %rdx
	orq	%rbx, %rdx
	jmp	.L1469
	.p2align 4,,10
	.p2align 3
.L1485:
	xorl	%edx, %edx
	movq	%rax, %rdi
	movq	%rbx, %rsi
	call	string_substr
	movl	%edx, %ebp
	jmp	.L1471
.L1481:
	call	__stack_chk_fail@PLT
	.cfi_endproc
.LFE342:
	.size	string_all_before_last, .-string_all_before_last
	.section	.text.string_right,"ax",@progbits
	.p2align 4,,15
	.globl	string_right
	.type	string_right, @function
string_right:
.LFB284:
	.cfi_startproc
	cmpl	%esi, %edx
	jl	.L1490
	leaq	.LC37(%rip), %rax
	xorl	%edx, %edx
	ret
	.p2align 4,,10
	.p2align 3
.L1490:
	movl	%esi, %ecx
	jmp	string_substr
	.cfi_endproc
.LFE284:
	.size	string_right, .-string_right
	.section	.text.string_find_between,"ax",@progbits
	.p2align 4,,15
	.globl	string_find_between
	.type	string_find_between, @function
string_find_between:
.LFB303:
	.cfi_startproc
	pushq	%r15
	.cfi_def_cfa_offset 16
	.cfi_offset 15, -16
	pushq	%r14
	.cfi_def_cfa_offset 24
	.cfi_offset 14, -24
	movq	%rdi, %r14
	pushq	%r13
	.cfi_def_cfa_offset 32
	.cfi_offset 13, -32
	pushq	%r12
	.cfi_def_cfa_offset 40
	.cfi_offset 12, -40
	movq	%r8, %r12
	pushq	%rbp
	.cfi_def_cfa_offset 48
	.cfi_offset 6, -48
	pushq	%rbx
	.cfi_def_cfa_offset 56
	.cfi_offset 3, -56
	movq	%rcx, %rbp
	movq	%rsi, %rbx
	movq	%rdx, %rcx
	movq	%rbp, %r8
	subq	$904, %rsp
	.cfi_def_cfa_offset 960
	movq	%rbx, %rdx
	movq	%r14, %rsi
	leaq	16(%rsp), %rdi
	movq	%r9, %r13
	movq	%fs:40, %rax
	movq	%rax, 888(%rsp)
	xorl	%eax, %eax
	call	string_index
	movl	436(%rsp), %edx
	testl	%edx, %edx
	je	.L1501
	movl	16(%rsp), %edx
	xorl	%r15d, %r15d
	addl	%ebp, %edx
	leaq	.LC37(%rip), %rbp
	cmpl	%ebx, %edx
	jl	.L1502
.L1494:
	movabsq	$-4294967296, %rdx
	andq	8(%rsp), %rdx
	movl	%r15d, %r14d
	leaq	448(%rsp), %rdi
	movq	%r13, %r8
	movq	%r12, %rcx
	movq	%rbp, %rsi
	movq	%rdx, %rbx
	orq	%r14, %rbx
	movq	%rbx, %rdx
	call	string_index
	movl	868(%rsp), %eax
	testl	%eax, %eax
	je	.L1503
	movl	448(%rsp), %ecx
	movq	%rbx, %rdx
	cmpl	%ecx, %r15d
	jg	.L1504
.L1497:
	movabsq	$-4294967296, %rbx
	movq	%rbp, %rax
	andq	%rbx, %rdx
	orq	%r14, %rdx
	jmp	.L1493
	.p2align 4,,10
	.p2align 3
.L1503:
	movq	%rbp, %rax
	movq	%rbx, %rdx
.L1493:
	movq	888(%rsp), %rsi
	xorq	%fs:40, %rsi
	jne	.L1505
	addq	$904, %rsp
	.cfi_remember_state
	.cfi_def_cfa_offset 56
	popq	%rbx
	.cfi_def_cfa_offset 48
	popq	%rbp
	.cfi_def_cfa_offset 40
	popq	%r12
	.cfi_def_cfa_offset 32
	popq	%r13
	.cfi_def_cfa_offset 24
	popq	%r14
	.cfi_def_cfa_offset 16
	popq	%r15
	.cfi_def_cfa_offset 8
	ret
	.p2align 4,,10
	.p2align 3
.L1501:
	.cfi_restore_state
	leaq	.LC37(%rip), %rax
	xorl	%edx, %edx
	jmp	.L1493
	.p2align 4,,10
	.p2align 3
.L1502:
	movl	%ebx, %ecx
	movq	%r14, %rdi
	movq	%rbx, %rsi
	call	string_substr
	movq	%rdx, 8(%rsp)
	movq	%rax, %rbp
	movl	%edx, %r15d
	jmp	.L1494
	.p2align 4,,10
	.p2align 3
.L1504:
	movq	%rbp, %rdi
	xorl	%edx, %edx
	movq	%rbx, %rsi
	call	string_substr
	movq	%rax, %rbp
	movl	%edx, %r14d
	jmp	.L1497
.L1505:
	call	__stack_chk_fail@PLT
	.cfi_endproc
.LFE303:
	.size	string_find_between, .-string_find_between
	.section	.text.string_all_after,"ax",@progbits
	.p2align 4,,15
	.globl	string_all_after
	.type	string_all_after, @function
string_all_after:
.LFB343:
	.cfi_startproc
	pushq	%r13
	.cfi_def_cfa_offset 16
	.cfi_offset 13, -16
	pushq	%r12
	.cfi_def_cfa_offset 24
	.cfi_offset 12, -24
	movq	%rdi, %r13
	pushq	%rbp
	.cfi_def_cfa_offset 32
	.cfi_offset 6, -32
	pushq	%rbx
	.cfi_def_cfa_offset 40
	.cfi_offset 3, -40
	movq	%rsi, %r12
	movq	%rcx, %rbp
	movq	%r13, %rsi
	movq	%rdx, %rcx
	subq	$456, %rsp
	.cfi_def_cfa_offset 496
	movq	%rbp, %r8
	movq	%r12, %rdx
	movq	%rsp, %rdi
	movq	%fs:40, %rax
	movq	%rax, 440(%rsp)
	xorl	%eax, %eax
	call	string_last_index
	movl	420(%rsp), %eax
	testl	%eax, %eax
	je	.L1513
	movl	(%rsp), %edx
	xorl	%ecx, %ecx
	leaq	.LC37(%rip), %rax
	addl	%ebp, %edx
	cmpl	%r12d, %edx
	jl	.L1514
.L1509:
	movabsq	$-4294967296, %rdx
	andq	%rbx, %rdx
	orq	%rcx, %rdx
.L1508:
	movq	440(%rsp), %rbx
	xorq	%fs:40, %rbx
	jne	.L1515
	addq	$456, %rsp
	.cfi_remember_state
	.cfi_def_cfa_offset 40
	popq	%rbx
	.cfi_def_cfa_offset 32
	popq	%rbp
	.cfi_def_cfa_offset 24
	popq	%r12
	.cfi_def_cfa_offset 16
	popq	%r13
	.cfi_def_cfa_offset 8
	ret
	.p2align 4,,10
	.p2align 3
.L1513:
	.cfi_restore_state
	movq	%r13, %rax
	movq	%r12, %rdx
	jmp	.L1508
	.p2align 4,,10
	.p2align 3
.L1514:
	movl	%r12d, %ecx
	movq	%r13, %rdi
	movq	%r12, %rsi
	call	string_substr
	movq	%rdx, %rbx
	movl	%edx, %ecx
	jmp	.L1509
.L1515:
	call	__stack_chk_fail@PLT
	.cfi_endproc
.LFE343:
	.size	string_all_after, .-string_all_after
	.section	.text.string_after,"ax",@progbits
	.p2align 4,,15
	.globl	string_after
	.type	string_after, @function
string_after:
.LFB344:
	.cfi_startproc
	jmp	string_all_after
	.cfi_endproc
.LFE344:
	.size	string_after, .-string_after
	.section	.text.string_substr2,"ax",@progbits
	.p2align 4,,15
	.globl	string_substr2
	.type	string_substr2, @function
string_substr2:
.LFB285:
	.cfi_startproc
	testl	%r8d, %r8d
	cmovne	%esi, %ecx
	jmp	string_substr
	.cfi_endproc
.LFE285:
	.size	string_substr2, .-string_substr2
	.section	.text.ustring_substr,"ax",@progbits
	.p2align 4,,15
	.globl	ustring_substr
	.type	ustring_substr, @function
ustring_substr:
.LFB329:
	.cfi_startproc
	pushq	%rbp
	.cfi_def_cfa_offset 16
	.cfi_offset 6, -16
	pushq	%rbx
	.cfi_def_cfa_offset 24
	.cfi_offset 3, -24
	movl	%edi, %ebx
	subq	$8, %rsp
	.cfi_def_cfa_offset 32
	cmpl	%esi, %edi
	movl	72(%rsp), %ecx
	setg	%dl
	cmpl	%ecx, %edi
	setg	%al
	orb	%al, %dl
	jne	.L1522
	cmpl	%ecx, %esi
	jg	.L1522
	testl	%edi, %edi
	js	.L1522
	testl	%esi, %esi
	js	.L1522
	cmpl	%ecx, %esi
	jl	.L1525
	movl	40(%rsp), %ebp
.L1526:
	subq	$8, %rsp
	.cfi_def_cfa_offset 40
	movl	%ebx, %edi
	pushq	72(%rsp)
	.cfi_def_cfa_offset 48
	pushq	72(%rsp)
	.cfi_def_cfa_offset 56
	pushq	72(%rsp)
	.cfi_def_cfa_offset 64
	call	array_get
	movq	64(%rsp), %rdi
	movl	(%rax), %edx
	movl	%ebp, %ecx
	movq	72(%rsp), %rsi
	addq	$40, %rsp
	.cfi_def_cfa_offset 24
	popq	%rbx
	.cfi_def_cfa_offset 16
	popq	%rbp
	.cfi_def_cfa_offset 8
	jmp	string_substr
	.p2align 4,,10
	.p2align 3
.L1525:
	.cfi_def_cfa_offset 32
	subq	$8, %rsp
	.cfi_def_cfa_offset 40
	movl	%esi, %edi
	pushq	72(%rsp)
	.cfi_def_cfa_offset 48
	pushq	72(%rsp)
	.cfi_def_cfa_offset 56
	pushq	72(%rsp)
	.cfi_def_cfa_offset 64
	call	array_get
	addq	$32, %rsp
	.cfi_def_cfa_offset 32
	movl	(%rax), %ebp
	jmp	.L1526
.L1522:
	leaq	.LC83(%rip), %rdi
	movl	%esi, %edx
	xorl	%eax, %eax
	movl	%ebx, %esi
	call	_STR
	movq	%rdx, %rsi
	movq	%rax, %rdi
	call	v_panic
	.cfi_endproc
.LFE329:
	.size	ustring_substr, .-ustring_substr
	.section	.text.ustring_left,"ax",@progbits
	.p2align 4,,15
	.globl	ustring_left
	.type	ustring_left, @function
ustring_left:
.LFB330:
	.cfi_startproc
	cmpl	%edi, 48(%rsp)
	jg	.L1533
	movq	8(%rsp), %rax
	movq	16(%rsp), %rdx
	ret
	.p2align 4,,10
	.p2align 3
.L1533:
	movl	%edi, %esi
	xorl	%edi, %edi
	jmp	ustring_substr
	.cfi_endproc
.LFE330:
	.size	ustring_left, .-ustring_left
	.section	.text.ustring_right,"ax",@progbits
	.p2align 4,,15
	.globl	ustring_right
	.type	ustring_right, @function
ustring_right:
.LFB331:
	.cfi_startproc
	movl	48(%rsp), %esi
	cmpl	%esi, %edi
	jl	.L1538
	leaq	.LC37(%rip), %rax
	xorl	%edx, %edx
	ret
	.p2align 4,,10
	.p2align 3
.L1538:
	jmp	ustring_substr
	.cfi_endproc
.LFE331:
	.size	ustring_right, .-ustring_right
	.section	.text.string_limit,"ax",@progbits
	.p2align 4,,15
	.globl	string_limit
	.type	string_limit, @function
string_limit:
.LFB348:
	.cfi_startproc
	pushq	%r15
	.cfi_def_cfa_offset 16
	.cfi_offset 15, -16
	pushq	%r14
	.cfi_def_cfa_offset 24
	.cfi_offset 14, -24
	pushq	%r13
	.cfi_def_cfa_offset 32
	.cfi_offset 13, -32
	pushq	%r12
	.cfi_def_cfa_offset 40
	.cfi_offset 12, -40
	movq	%rsi, %r12
	pushq	%rbp
	.cfi_def_cfa_offset 48
	.cfi_offset 6, -48
	pushq	%rbx
	.cfi_def_cfa_offset 56
	.cfi_offset 3, -56
	movq	%rdi, %rbp
	subq	$136, %rsp
	.cfi_def_cfa_offset 192
	movq	%fs:40, %rax
	movq	%rax, 120(%rsp)
	xorl	%eax, %eax
	testl	%esi, %esi
	movl	%edx, 12(%rsp)
	movq	%rdi, 64(%rsp)
	movl	%esi, 72(%rsp)
	je	.L1540
	leal	0(,%rsi,4), %edi
	testl	%edi, %edi
	jle	.L1551
	movl	%esi, %r13d
	movslq	%edi, %rdi
	movl	$1, %esi
	call	calloc@PLT
	testl	%r12d, %r12d
	movq	%rax, 80(%rsp)
	movl	$0, 88(%rsp)
	movl	%r12d, 92(%rsp)
	movl	$4, 96(%rsp)
	movl	$0, 104(%rsp)
	jle	.L1547
	leaq	16(%rsp), %rax
	leaq	64(%rsp), %r14
	xorl	%r15d, %r15d
	movq	%rax, (%rsp)
	.p2align 4,,10
	.p2align 3
.L1543:
	movslq	%r15d, %rdx
	movq	(%rsp), %rsi
	leaq	16(%r14), %rdi
	movzbl	0(%rbp,%rdx), %ecx
	movl	$-452984832, %ebx
	movl	%r15d, 16(%rsp)
	shrb	$3, %cl
	andl	$30, %ecx
	shrl	%cl, %ebx
	call	array_push
	movl	104(%rsp), %eax
	andl	$3, %ebx
	leal	1(%r15,%rbx), %r15d
	leal	1(%rax), %r8d
	cmpl	%r15d, %r13d
	movl	%r8d, 104(%rsp)
	jg	.L1543
.L1542:
	cmpl	%r8d, 12(%rsp)
	movq	64(%rsp), %rax
	movq	72(%rsp), %rdx
	movq	80(%rsp), %rcx
	movq	88(%rsp), %rbx
	movq	96(%rsp), %rsi
	movq	104(%rsp), %rdi
	movq	%rax, 16(%rsp)
	movq	%rdx, 24(%rsp)
	movq	%rcx, 32(%rsp)
	movq	%rbx, 40(%rsp)
	movq	%rsi, 48(%rsp)
	movq	%rdi, 56(%rsp)
	jl	.L1544
	movq	%rbp, %rax
	movq	%r12, %rdx
.L1545:
	movq	120(%rsp), %rsi
	xorq	%fs:40, %rsi
	jne	.L1552
	addq	$136, %rsp
	.cfi_remember_state
	.cfi_def_cfa_offset 56
	popq	%rbx
	.cfi_def_cfa_offset 48
	popq	%rbp
	.cfi_def_cfa_offset 40
	popq	%r12
	.cfi_def_cfa_offset 32
	popq	%r13
	.cfi_def_cfa_offset 24
	popq	%r14
	.cfi_def_cfa_offset 16
	popq	%r15
	.cfi_def_cfa_offset 8
	ret
	.p2align 4,,10
	.p2align 3
.L1540:
	.cfi_restore_state
	movl	$1, %esi
	movl	$4, %edi
	call	calloc@PLT
	movq	%rax, 80(%rsp)
	movabsq	$4294967296, %rax
	movl	$4, 96(%rsp)
	movq	%rax, 88(%rsp)
	movl	$0, 104(%rsp)
	xorl	%r8d, %r8d
	jmp	.L1542
	.p2align 4,,10
	.p2align 3
.L1544:
	pushq	%rdi
	.cfi_def_cfa_offset 200
	pushq	%rsi
	.cfi_def_cfa_offset 208
	xorl	%edi, %edi
	pushq	%rbx
	.cfi_def_cfa_offset 216
	pushq	%rcx
	.cfi_def_cfa_offset 224
	pushq	%rdx
	.cfi_def_cfa_offset 232
	pushq	%rax
	.cfi_def_cfa_offset 240
	movl	60(%rsp), %esi
	call	ustring_substr
	addq	$48, %rsp
	.cfi_def_cfa_offset 192
	jmp	.L1545
.L1551:
	call	vcalloc.part.5
.L1552:
	call	__stack_chk_fail@PLT
.L1547:
	xorl	%r8d, %r8d
	jmp	.L1542
	.cfi_endproc
.LFE348:
	.size	string_limit, .-string_limit
	.section	.rodata.str1.8
	.align 8
.LC84:
	.string	"string index out of range: %d / %d"
	.section	.text.string_at,"ax",@progbits
	.p2align 4,,15
	.globl	string_at
	.type	string_at, @function
string_at:
.LFB332:
	.cfi_startproc
	cmpl	%esi, %edx
	jge	.L1556
	testl	%edx, %edx
	js	.L1556
	movslq	%edx, %rdx
	movzbl	(%rdx,%rdi), %eax
	ret
.L1556:
	movl	%edx, %eax
	leaq	.LC84(%rip), %rdi
	movq	%rsi, %rdx
	subq	$8, %rsp
	.cfi_def_cfa_offset 16
	movl	%eax, %esi
	xorl	%eax, %eax
	call	_STR
	movq	%rdx, %rsi
	movq	%rax, %rdi
	call	v_panic
	.cfi_endproc
.LFE332:
	.size	string_at, .-string_at
	.section	.text.u32_str,"ax",@progbits
	.p2align 4,,15
	.globl	u32_str
	.type	u32_str, @function
u32_str:
.LFB190:
	.cfi_startproc
	testl	%edi, %edi
	jne	.L1560
	leaq	.LC80(%rip), %rax
	movl	$1, %edx
	ret
	.p2align 4,,10
	.p2align 3
.L1560:
	pushq	%r15
	.cfi_def_cfa_offset 16
	.cfi_offset 15, -16
	pushq	%r14
	.cfi_def_cfa_offset 24
	.cfi_offset 14, -24
	leaq	_const_digit_pairs(%rip), %r15
	pushq	%r13
	.cfi_def_cfa_offset 32
	.cfi_offset 13, -32
	pushq	%r12
	.cfi_def_cfa_offset 40
	.cfi_offset 12, -40
	pushq	%rbp
	.cfi_def_cfa_offset 48
	.cfi_offset 6, -48
	pushq	%rbx
	.cfi_def_cfa_offset 56
	.cfi_offset 3, -56
	leaq	8(%r15), %r14
	movl	$11, %ebx
	subq	$40, %rsp
	.cfi_def_cfa_offset 96
	movl	%edi, 8(%rsp)
	movl	$13, %edi
	call	v_malloc
	movl	8(%rsp), %ecx
	movq	%rax, 24(%rsp)
	leaq	11(%rax), %r13
	movb	$0, 12(%rax)
	jmp	.L1562
	.p2align 4,,10
	.p2align 3
.L1564:
	movl	8(%rsp), %ebx
.L1562:
	movl	$1374389535, %eax
	movq	(%r15), %rdi
	movq	(%r14), %rsi
	mull	%ecx
	movq	%r13, (%rsp)
	shrl	$5, %edx
	imull	$100, %edx, %eax
	movl	%edx, %r12d
	subl	%eax, %ecx
	leal	-1(%rbx), %eax
	leal	(%rcx,%rcx), %edx
	movl	%eax, 12(%rsp)
	leal	1(%rdx), %ebp
	call	string_at
	movb	%al, 0(%r13)
	leal	-2(%rbx), %eax
	movq	(%r15), %rdi
	movq	(%r14), %rsi
	movl	%ebp, %edx
	movl	%eax, 8(%rsp)
	leaq	-1(%r13), %rax
	subq	$2, %r13
	movq	%rax, 16(%rsp)
	call	string_at
	movb	%al, 1(%r13)
	testl	%r12d, %r12d
	movl	%r12d, %ecx
	jne	.L1564
	cmpl	$20, %ebp
	cmovnb	12(%rsp), %ebx
	movq	24(%rsp), %r14
	movq	16(%rsp), %rsi
	cmovb	(%rsp), %rsi
	movl	$13, %edx
	movq	%r14, %rdi
	subl	%ebx, %edx
	movslq	%edx, %rdx
	call	memmove@PLT
	addq	$40, %rsp
	.cfi_def_cfa_offset 56
	movl	$12, %edx
	subl	%ebx, %edx
	popq	%rbx
	.cfi_def_cfa_offset 48
	popq	%rbp
	.cfi_def_cfa_offset 40
	popq	%r12
	.cfi_def_cfa_offset 32
	popq	%r13
	.cfi_def_cfa_offset 24
	popq	%r14
	.cfi_def_cfa_offset 16
	popq	%r15
	.cfi_def_cfa_offset 8
	ret
	.cfi_endproc
.LFE190:
	.size	u32_str, .-u32_str
	.section	.text.i64_str.part.21,"ax",@progbits
	.p2align 4,,15
	.type	i64_str.part.21, @function
i64_str.part.21:
.LFB551:
	.cfi_startproc
	pushq	%r15
	.cfi_def_cfa_offset 16
	.cfi_offset 15, -16
	pushq	%r14
	.cfi_def_cfa_offset 24
	.cfi_offset 14, -24
	movl	$1, %esi
	pushq	%r13
	.cfi_def_cfa_offset 32
	.cfi_offset 13, -32
	pushq	%r12
	.cfi_def_cfa_offset 40
	.cfi_offset 12, -40
	pushq	%rbp
	.cfi_def_cfa_offset 48
	.cfi_offset 6, -48
	pushq	%rbx
	.cfi_def_cfa_offset 56
	.cfi_offset 3, -56
	subq	$24, %rsp
	.cfi_def_cfa_offset 80
	movq	%rdi, (%rsp)
	movl	$21, %edi
	call	calloc@PLT
	movq	(%rsp), %r11
	movq	%rax, %rbx
	testq	%r11, %r11
	js	.L1569
	movb	$0, 20(%rax)
	movl	$0, 12(%rsp)
	je	.L1579
.L1570:
	leaq	_const_digit_pairs(%rip), %r14
	movl	$17, %r13d
	leaq	8(%r14), %r15
	.p2align 4,,10
	.p2align 3
.L1572:
	movq	%r11, %rdx
	movabsq	$2951479051793528259, %rax
	movq	(%r14), %rdi
	shrq	$2, %rdx
	movq	(%r15), %rsi
	mulq	%rdx
	leal	1(%r13), %eax
	movl	%eax, (%rsp)
	shrq	$2, %rdx
	movq	%rdx, %r12
	imulq	$-100, %rdx, %rdx
	addq	%r11, %rdx
	addq	%rdx, %rdx
	leaq	1(%rdx), %rbp
	call	string_at
	movq	(%r14), %rdi
	movq	(%r15), %rsi
	movl	%ebp, %edx
	movb	%al, 2(%rbx,%r13)
	movl	%r13d, 8(%rsp)
	call	string_at
	movb	%al, 1(%rbx,%r13)
	subq	$2, %r13
	testq	%r12, %r12
	movq	%r12, %r11
	jne	.L1572
	movl	8(%rsp), %r13d
	movl	12(%rsp), %eax
	addl	$2, %r13d
	cmpq	$20, %rbp
	cmovge	(%rsp), %r13d
	testl	%eax, %eax
	movl	%r13d, (%rsp)
	je	.L1571
	subl	$1, (%rsp)
	movslq	(%rsp), %rsi
	movq	%rsi, %rax
	addq	%rbx, %rsi
	movb	$45, (%rsi)
	movl	%eax, %r14d
.L1575:
	movl	$21, %edx
	movq	%rbx, %rdi
	movl	$21, %ecx
	subl	%r14d, %edx
	movslq	%edx, %rdx
	call	__memmove_chk@PLT
	addq	$24, %rsp
	.cfi_remember_state
	.cfi_def_cfa_offset 56
	movl	$20, %edx
	popq	%rbx
	.cfi_def_cfa_offset 48
	subl	%r14d, %edx
	popq	%rbp
	.cfi_def_cfa_offset 40
	popq	%r12
	.cfi_def_cfa_offset 32
	popq	%r13
	.cfi_def_cfa_offset 24
	popq	%r14
	.cfi_def_cfa_offset 16
	popq	%r15
	.cfi_def_cfa_offset 8
	ret
	.p2align 4,,10
	.p2align 3
.L1579:
	.cfi_restore_state
	movl	$21, (%rsp)
	.p2align 4,,10
	.p2align 3
.L1571:
	movslq	(%rsp), %rsi
	movl	(%rsp), %r14d
	addq	%rbx, %rsi
	jmp	.L1575
	.p2align 4,,10
	.p2align 3
.L1569:
	negq	%r11
	movb	$0, 20(%rax)
	movl	$1, 12(%rsp)
	jmp	.L1570
	.cfi_endproc
.LFE551:
	.size	i64_str.part.21, .-i64_str.part.21
	.section	.text.i64_str,"ax",@progbits
	.p2align 4,,15
	.globl	i64_str
	.type	i64_str, @function
i64_str:
.LFB191:
	.cfi_startproc
	testq	%rdi, %rdi
	jne	.L1584
	leaq	.LC80(%rip), %rax
	movl	$1, %edx
	ret
	.p2align 4,,10
	.p2align 3
.L1584:
	jmp	i64_str.part.21
	.cfi_endproc
.LFE191:
	.size	i64_str, .-i64_str
	.section	.text.u64_str,"ax",@progbits
	.p2align 4,,15
	.globl	u64_str
	.type	u64_str, @function
u64_str:
.LFB192:
	.cfi_startproc
	testq	%rdi, %rdi
	jne	.L1586
	leaq	.LC80(%rip), %rax
	movl	$1, %edx
	ret
	.p2align 4,,10
	.p2align 3
.L1586:
	pushq	%r15
	.cfi_def_cfa_offset 16
	.cfi_offset 15, -16
	pushq	%r14
	.cfi_def_cfa_offset 24
	.cfi_offset 14, -24
	leaq	_const_digit_pairs(%rip), %r15
	pushq	%r13
	.cfi_def_cfa_offset 32
	.cfi_offset 13, -32
	pushq	%r12
	.cfi_def_cfa_offset 40
	.cfi_offset 12, -40
	movl	$1, %esi
	pushq	%rbp
	.cfi_def_cfa_offset 48
	.cfi_offset 6, -48
	pushq	%rbx
	.cfi_def_cfa_offset 56
	.cfi_offset 3, -56
	leaq	8(%r15), %r14
	movl	$19, %ebx
	subq	$56, %rsp
	.cfi_def_cfa_offset 112
	movq	%rdi, 8(%rsp)
	movl	$21, %edi
	call	calloc@PLT
	movq	8(%rsp), %rcx
	movq	%rax, 40(%rsp)
	leaq	18(%rax), %r13
	movb	$0, 20(%rax)
	jmp	.L1588
	.p2align 4,,10
	.p2align 3
.L1590:
	movl	8(%rsp), %ebx
.L1588:
	movq	%rcx, %rdx
	movabsq	$2951479051793528259, %rax
	movq	(%r15), %rdi
	shrq	$2, %rdx
	movq	(%r14), %rsi
	mulq	%rdx
	shrq	$2, %rdx
	leaq	(%rdx,%rdx,4), %rax
	movq	%rdx, %r12
	leaq	(%rax,%rax,4), %rax
	salq	$2, %rax
	subq	%rax, %rcx
	leal	-1(%rbx), %eax
	leaq	(%rcx,%rcx), %rdx
	movl	%eax, 28(%rsp)
	leaq	1(%r13), %rax
	leal	1(%rdx), %ebp
	movq	%rax, 32(%rsp)
	call	string_at
	movq	(%r15), %rdi
	movq	(%r14), %rsi
	movl	%ebp, %edx
	movb	%al, 1(%r13)
	leal	-2(%rbx), %eax
	movq	%r13, 16(%rsp)
	subq	$2, %r13
	movl	%eax, 8(%rsp)
	call	string_at
	movb	%al, 2(%r13)
	testq	%r12, %r12
	movq	%r12, %rcx
	jne	.L1590
	cmpl	$20, %ebp
	cmovge	28(%rsp), %ebx
	movq	40(%rsp), %r14
	movq	16(%rsp), %rsi
	cmovl	32(%rsp), %rsi
	movl	$21, %edx
	movl	$21, %ecx
	movq	%r14, %rdi
	subl	%ebx, %edx
	movslq	%edx, %rdx
	call	__memmove_chk@PLT
	addq	$56, %rsp
	.cfi_def_cfa_offset 56
	movl	$20, %edx
	subl	%ebx, %edx
	popq	%rbx
	.cfi_def_cfa_offset 48
	popq	%rbp
	.cfi_def_cfa_offset 40
	popq	%r12
	.cfi_def_cfa_offset 32
	popq	%r13
	.cfi_def_cfa_offset 24
	popq	%r14
	.cfi_def_cfa_offset 16
	popq	%r15
	.cfi_def_cfa_offset 8
	ret
	.cfi_endproc
.LFE192:
	.size	u64_str, .-u64_str
	.section	.text.string_lt,"ax",@progbits
	.p2align 4,,15
	.globl	string_lt
	.type	string_lt, @function
string_lt:
.LFB275:
	.cfi_startproc
	pushq	%r15
	.cfi_def_cfa_offset 16
	.cfi_offset 15, -16
	pushq	%r14
	.cfi_def_cfa_offset 24
	.cfi_offset 14, -24
	pushq	%r13
	.cfi_def_cfa_offset 32
	.cfi_offset 13, -32
	pushq	%r12
	.cfi_def_cfa_offset 40
	.cfi_offset 12, -40
	pushq	%rbp
	.cfi_def_cfa_offset 48
	.cfi_offset 6, -48
	pushq	%rbx
	.cfi_def_cfa_offset 56
	.cfi_offset 3, -56
	subq	$40, %rsp
	.cfi_def_cfa_offset 96
	testl	%esi, %esi
	movq	%rdi, (%rsp)
	movl	%esi, 8(%rsp)
	movl	%ecx, 12(%rsp)
	jle	.L1600
	movl	8(%rsp), %eax
	xorl	%ebx, %ebx
	testl	%ecx, %ecx
	movq	%rsi, %rbp
	movq	%rdx, %r14
	movq	%rcx, %r12
	movabsq	$-4294967296, %r13
	movq	%rax, 24(%rsp)
	movl	12(%rsp), %eax
	movq	%rax, 16(%rsp)
	jg	.L1597
	jmp	.L1598
	.p2align 4,,10
	.p2align 3
.L1605:
	movq	(%rsp), %rdi
	movl	%ebx, %edx
	movq	%rbp, %rsi
	call	string_at
	movl	%ebx, %edx
	movl	%eax, %r15d
	movq	%r14, %rdi
	movq	%r12, %rsi
	call	string_at
	cmpb	%al, %r15b
	jb	.L1602
	addl	$1, %ebx
	cmpl	%ebx, 8(%rsp)
	je	.L1600
	cmpl	%ebx, 12(%rsp)
	je	.L1598
.L1597:
	andq	%r13, %rbp
	orq	24(%rsp), %rbp
	movq	(%rsp), %rdi
	movl	%ebx, %edx
	andq	%r13, %r12
	movq	%rbp, %rsi
	call	string_at
	orq	16(%rsp), %r12
	movl	%eax, %r15d
	movl	%ebx, %edx
	movq	%r14, %rdi
	movq	%r12, %rsi
	call	string_at
	cmpb	%al, %r15b
	jbe	.L1605
.L1598:
	addq	$40, %rsp
	.cfi_remember_state
	.cfi_def_cfa_offset 56
	xorl	%eax, %eax
	popq	%rbx
	.cfi_def_cfa_offset 48
	popq	%rbp
	.cfi_def_cfa_offset 40
	popq	%r12
	.cfi_def_cfa_offset 32
	popq	%r13
	.cfi_def_cfa_offset 24
	popq	%r14
	.cfi_def_cfa_offset 16
	popq	%r15
	.cfi_def_cfa_offset 8
	ret
	.p2align 4,,10
	.p2align 3
.L1600:
	.cfi_restore_state
	movl	8(%rsp), %ecx
	xorl	%eax, %eax
	cmpl	%ecx, 12(%rsp)
	setg	%al
	addq	$40, %rsp
	.cfi_remember_state
	.cfi_def_cfa_offset 56
	popq	%rbx
	.cfi_def_cfa_offset 48
	popq	%rbp
	.cfi_def_cfa_offset 40
	popq	%r12
	.cfi_def_cfa_offset 32
	popq	%r13
	.cfi_def_cfa_offset 24
	popq	%r14
	.cfi_def_cfa_offset 16
	popq	%r15
	.cfi_def_cfa_offset 8
	ret
	.p2align 4,,10
	.p2align 3
.L1602:
	.cfi_restore_state
	addq	$40, %rsp
	.cfi_def_cfa_offset 56
	movl	$1, %eax
	popq	%rbx
	.cfi_def_cfa_offset 48
	popq	%rbp
	.cfi_def_cfa_offset 40
	popq	%r12
	.cfi_def_cfa_offset 32
	popq	%r13
	.cfi_def_cfa_offset 24
	popq	%r14
	.cfi_def_cfa_offset 16
	popq	%r15
	.cfi_def_cfa_offset 8
	ret
	.cfi_endproc
.LFE275:
	.size	string_lt, .-string_lt
	.section	.text.string_ge,"ax",@progbits
	.p2align 4,,15
	.globl	string_ge
	.type	string_ge, @function
string_ge:
.LFB278:
	.cfi_startproc
	subq	$8, %rsp
	.cfi_def_cfa_offset 16
	call	string_lt
	testl	%eax, %eax
	sete	%al
	addq	$8, %rsp
	.cfi_def_cfa_offset 8
	movzbl	%al, %eax
	ret
	.cfi_endproc
.LFE278:
	.size	string_ge, .-string_ge
	.section	.text.ustring_lt,"ax",@progbits
	.p2align 4,,15
	.globl	ustring_lt
	.type	ustring_lt, @function
ustring_lt:
.LFB322:
	.cfi_startproc
	movq	56(%rsp), %rdx
	movq	64(%rsp), %rcx
	movq	8(%rsp), %rdi
	movq	16(%rsp), %rsi
	jmp	string_lt
	.cfi_endproc
.LFE322:
	.size	ustring_lt, .-ustring_lt
	.section	.text.ustring_ge,"ax",@progbits
	.p2align 4,,15
	.globl	ustring_ge
	.type	ustring_ge, @function
ustring_ge:
.LFB325:
	.cfi_startproc
	subq	$104, %rsp
	.cfi_def_cfa_offset 112
	movdqu	112(%rsp), %xmm0
	movq	160(%rsp), %rdx
	movq	168(%rsp), %rcx
	movaps	%xmm0, (%rsp)
	movq	8(%rsp), %rsi
	movq	%xmm0, %rdi
	call	string_lt
	testl	%eax, %eax
	sete	%al
	addq	$104, %rsp
	.cfi_def_cfa_offset 8
	movzbl	%al, %eax
	ret
	.cfi_endproc
.LFE325:
	.size	ustring_ge, .-ustring_ge
	.section	.text.string_ends_with,"ax",@progbits
	.p2align 4,,15
	.globl	string_ends_with
	.type	string_ends_with, @function
string_ends_with:
.LFB298:
	.cfi_startproc
	pushq	%r15
	.cfi_def_cfa_offset 16
	.cfi_offset 15, -16
	pushq	%r14
	.cfi_def_cfa_offset 24
	.cfi_offset 14, -24
	pushq	%r13
	.cfi_def_cfa_offset 32
	.cfi_offset 13, -32
	pushq	%r12
	.cfi_def_cfa_offset 40
	.cfi_offset 12, -40
	pushq	%rbp
	.cfi_def_cfa_offset 48
	.cfi_offset 6, -48
	pushq	%rbx
	.cfi_def_cfa_offset 56
	.cfi_offset 3, -56
	subq	$56, %rsp
	.cfi_def_cfa_offset 112
	cmpl	%esi, %ecx
	movq	%rdi, 16(%rsp)
	jg	.L1612
	testl	%ecx, %ecx
	jle	.L1616
	movl	%ecx, %eax
	movq	%rsi, %rbx
	movl	%esi, %r15d
	leal	-1(%rax), %esi
	subl	%eax, %r15d
	movq	%rax, 24(%rsp)
	movl	%ebx, %eax
	movq	%rdx, %r14
	xorl	%ebp, %ebp
	leaq	1(%rsi), %rdi
	movq	%rax, 32(%rsp)
	movabsq	$-4294967296, %r12
	movq	%rdi, 40(%rsp)
	jmp	.L1615
	.p2align 4,,10
	.p2align 3
.L1619:
	addq	$1, %rbp
	cmpq	40(%rsp), %rbp
	movq	8(%rsp), %rcx
	je	.L1616
.L1615:
	andq	%r12, %rcx
	orq	24(%rsp), %rcx
	movl	%ebp, %edx
	movq	%r14, %rdi
	andq	%r12, %rbx
	movq	%rcx, %rsi
	movq	%rcx, 8(%rsp)
	call	string_at
	orq	32(%rsp), %rbx
	movq	16(%rsp), %rdi
	leal	(%r15,%rbp), %edx
	movl	%eax, %r13d
	movq	%rbx, %rsi
	call	string_at
	cmpb	%al, %r13b
	je	.L1619
.L1612:
	addq	$56, %rsp
	.cfi_remember_state
	.cfi_def_cfa_offset 56
	xorl	%eax, %eax
	popq	%rbx
	.cfi_def_cfa_offset 48
	popq	%rbp
	.cfi_def_cfa_offset 40
	popq	%r12
	.cfi_def_cfa_offset 32
	popq	%r13
	.cfi_def_cfa_offset 24
	popq	%r14
	.cfi_def_cfa_offset 16
	popq	%r15
	.cfi_def_cfa_offset 8
	ret
	.p2align 4,,10
	.p2align 3
.L1616:
	.cfi_restore_state
	addq	$56, %rsp
	.cfi_def_cfa_offset 56
	movl	$1, %eax
	popq	%rbx
	.cfi_def_cfa_offset 48
	popq	%rbp
	.cfi_def_cfa_offset 40
	popq	%r12
	.cfi_def_cfa_offset 32
	popq	%r13
	.cfi_def_cfa_offset 24
	popq	%r14
	.cfi_def_cfa_offset 16
	popq	%r15
	.cfi_def_cfa_offset 8
	ret
	.cfi_endproc
.LFE298:
	.size	string_ends_with, .-string_ends_with
	.section	.text.string_capitalize,"ax",@progbits
	.p2align 4,,15
	.globl	string_capitalize
	.type	string_capitalize, @function
string_capitalize:
.LFB301:
	.cfi_startproc
	testl	%esi, %esi
	jne	.L1633
	leaq	.LC37(%rip), %rax
	xorl	%edx, %edx
	ret
	.p2align 4,,10
	.p2align 3
.L1633:
	pushq	%r14
	.cfi_def_cfa_offset 16
	.cfi_offset 14, -16
	pushq	%r13
	.cfi_def_cfa_offset 24
	.cfi_offset 13, -24
	movq	%rsi, %r13
	pushq	%r12
	.cfi_def_cfa_offset 32
	.cfi_offset 12, -32
	pushq	%rbp
	.cfi_def_cfa_offset 40
	.cfi_offset 6, -40
	pushq	%rbx
	.cfi_def_cfa_offset 48
	.cfi_offset 3, -48
	movq	%rdi, %rbx
	leal	1(%rsi), %edi
	call	v_malloc
	testl	%r13d, %r13d
	movq	%rax, %r12
	jle	.L1623
	call	__ctype_tolower_loc@PLT
	leal	-1(%r13), %edi
	xorl	%edx, %edx
	addq	$1, %rdi
	.p2align 4,,10
	.p2align 3
.L1624:
	movzbl	(%rbx,%rdx), %r9d
	movq	(%rax), %r8
	movl	(%r8,%r9,4), %r8d
	movb	%r8b, (%r12,%rdx)
	addq	$1, %rdx
	cmpq	%rdx, %rdi
	jne	.L1624
.L1625:
	xorl	%ecx, %ecx
	cmpl	$1, %r13d
	movl	%r13d, %ebx
	leaq	.LC37(%rip), %r14
	jg	.L1634
.L1626:
	movabsq	$-4294967296, %rax
	movq	%rbx, %rsi
	xorl	%edx, %edx
	movq	%r12, %rdi
	andq	%rax, %rbp
	orq	%rcx, %rbp
	call	string_at
	movl	$2, %edi
	movl	%eax, %r12d
	call	v_malloc
	movl	$2, %edi
	movq	%rax, %rbx
	movb	%r12b, (%rax)
	movb	$0, 1(%rax)
	call	v_malloc
	movq	%rax, %r12
	call	__ctype_toupper_loc@PLT
	movzbl	(%rbx), %edx
	movq	(%rax), %rax
	movq	%rbp, %rcx
	movq	%r12, %rdi
	movl	$1, %esi
	movl	(%rax,%rdx,4), %eax
	movq	%r14, %rdx
	movb	%al, (%r12)
	popq	%rbx
	.cfi_remember_state
	.cfi_restore 3
	.cfi_def_cfa_offset 40
	popq	%rbp
	.cfi_restore 6
	.cfi_def_cfa_offset 32
	popq	%r12
	.cfi_restore 12
	.cfi_def_cfa_offset 24
	popq	%r13
	.cfi_restore 13
	.cfi_def_cfa_offset 16
	popq	%r14
	.cfi_restore 14
	.cfi_def_cfa_offset 8
	jmp	string_add
	.p2align 4,,10
	.p2align 3
.L1634:
	.cfi_restore_state
	movl	%r13d, %ecx
	movl	$1, %edx
	movq	%r12, %rdi
	movq	%rbx, %rsi
	call	string_substr
	movq	%rdx, %rbp
	movq	%rax, %r14
	movl	%edx, %ecx
	jmp	.L1626
	.p2align 4,,10
	.p2align 3
.L1623:
	testq	%rax, %rax
	jne	.L1625
	call	tos.part.7
	.cfi_endproc
.LFE301:
	.size	string_capitalize, .-string_capitalize
	.section	.text.string_reverse,"ax",@progbits
	.p2align 4,,15
	.globl	string_reverse
	.type	string_reverse, @function
string_reverse:
.LFB347:
	.cfi_startproc
	cmpl	$1, %esi
	jbe	.L1644
	pushq	%r15
	.cfi_def_cfa_offset 16
	.cfi_offset 15, -16
	pushq	%r14
	.cfi_def_cfa_offset 24
	.cfi_offset 14, -24
	movq	%rdi, %r14
	pushq	%r13
	.cfi_def_cfa_offset 32
	.cfi_offset 13, -32
	pushq	%r12
	.cfi_def_cfa_offset 40
	.cfi_offset 12, -40
	movl	%esi, %edi
	pushq	%rbp
	.cfi_def_cfa_offset 48
	.cfi_offset 6, -48
	pushq	%rbx
	.cfi_def_cfa_offset 56
	.cfi_offset 3, -56
	movq	%rsi, %rbx
	movl	%ebx, %ebp
	movl	%esi, %r13d
	subq	$24, %rsp
	.cfi_def_cfa_offset 80
	movq	%rsi, 8(%rsp)
	call	v_malloc
	subl	$1, %ebp
	movq	%rax, (%rsp)
	js	.L1638
	movq	%rax, %r12
	movabsq	$-4294967296, %r15
	.p2align 4,,10
	.p2align 3
.L1639:
	andq	%r15, %rbx
	movl	%ebp, %edx
	movq	%r14, %rdi
	orq	%r13, %rbx
	subl	$1, %ebp
	addq	$1, %r12
	movq	%rbx, %rsi
	call	string_at
	movb	%al, -1(%r12)
	cmpl	$-1, %ebp
	jne	.L1639
.L1638:
	movq	(%rsp), %rax
	movl	8(%rsp), %edx
	addq	$24, %rsp
	.cfi_def_cfa_offset 56
	popq	%rbx
	.cfi_def_cfa_offset 48
	popq	%rbp
	.cfi_def_cfa_offset 40
	popq	%r12
	.cfi_def_cfa_offset 32
	popq	%r13
	.cfi_def_cfa_offset 24
	popq	%r14
	.cfi_def_cfa_offset 16
	popq	%r15
	.cfi_def_cfa_offset 8
	ret
	.p2align 4,,10
	.p2align 3
.L1644:
	.cfi_restore 3
	.cfi_restore 6
	.cfi_restore 12
	.cfi_restore 13
	.cfi_restore 14
	.cfi_restore 15
	movq	%rdi, %rax
	movq	%rsi, %rdx
	ret
	.cfi_endproc
.LFE347:
	.size	string_reverse, .-string_reverse
	.section	.rodata.str1.1
.LC85:
	.string	"string.eq(): nil string"
	.section	.text.string_eq,"ax",@progbits
	.p2align 4,,15
	.globl	string_eq
	.type	string_eq, @function
string_eq:
.LFB273:
	.cfi_startproc
	pushq	%r15
	.cfi_def_cfa_offset 16
	.cfi_offset 15, -16
	pushq	%r14
	.cfi_def_cfa_offset 24
	.cfi_offset 14, -24
	pushq	%r13
	.cfi_def_cfa_offset 32
	.cfi_offset 13, -32
	pushq	%r12
	.cfi_def_cfa_offset 40
	.cfi_offset 12, -40
	pushq	%rbp
	.cfi_def_cfa_offset 48
	.cfi_offset 6, -48
	pushq	%rbx
	.cfi_def_cfa_offset 56
	.cfi_offset 3, -56
	subq	$24, %rsp
	.cfi_def_cfa_offset 80
	testq	%rdi, %rdi
	je	.L1655
	cmpl	%esi, %ecx
	movq	%rsi, %r8
	movq	%rcx, %rbp
	movl	%ecx, %r14d
	je	.L1656
.L1647:
	addq	$24, %rsp
	.cfi_remember_state
	.cfi_def_cfa_offset 56
	xorl	%eax, %eax
	popq	%rbx
	.cfi_def_cfa_offset 48
	popq	%rbp
	.cfi_def_cfa_offset 40
	popq	%r12
	.cfi_def_cfa_offset 32
	popq	%r13
	.cfi_def_cfa_offset 24
	popq	%r14
	.cfi_def_cfa_offset 16
	popq	%r15
	.cfi_def_cfa_offset 8
	ret
	.p2align 4,,10
	.p2align 3
.L1656:
	.cfi_restore_state
	xorl	%ebx, %ebx
	movl	%ecx, %eax
	testl	%ecx, %ecx
	movq	%rdi, %r13
	movq	%rdx, %r15
	movq	%rax, 8(%rsp)
	jg	.L1648
	jmp	.L1650
	.p2align 4,,10
	.p2align 3
.L1657:
	addl	$1, %ebx
	movq	(%rsp), %r8
	cmpl	%ebx, %r14d
	je	.L1650
.L1648:
	movabsq	$-4294967296, %rax
	movl	%ebx, %edx
	movq	%r13, %rdi
	andq	%rax, %r8
	orq	8(%rsp), %r8
	movq	%r8, %rsi
	movq	%r8, (%rsp)
	call	string_at
	movl	%ebx, %edx
	movl	%eax, %r12d
	movq	%r15, %rdi
	movq	%rbp, %rsi
	call	string_at
	cmpb	%al, %r12b
	je	.L1657
	jmp	.L1647
	.p2align 4,,10
	.p2align 3
.L1650:
	addq	$24, %rsp
	.cfi_remember_state
	.cfi_def_cfa_offset 56
	movl	$1, %eax
	popq	%rbx
	.cfi_def_cfa_offset 48
	popq	%rbp
	.cfi_def_cfa_offset 40
	popq	%r12
	.cfi_def_cfa_offset 32
	popq	%r13
	.cfi_def_cfa_offset 24
	popq	%r14
	.cfi_def_cfa_offset 16
	popq	%r15
	.cfi_def_cfa_offset 8
	ret
.L1655:
	.cfi_restore_state
	leaq	.LC85(%rip), %rdi
	movl	$23, %esi
	call	v_panic
	.cfi_endproc
.LFE273:
	.size	string_eq, .-string_eq
	.section	.rodata.str1.1
.LC86:
	.string	"t"
	.section	.text.string_bool,"ax",@progbits
	.p2align 4,,15
	.globl	string_bool
	.type	string_bool, @function
string_bool:
.LFB263:
	.cfi_startproc
	pushq	%rbp
	.cfi_def_cfa_offset 16
	.cfi_offset 6, -16
	pushq	%rbx
	.cfi_def_cfa_offset 24
	.cfi_offset 3, -24
	leaq	.LC34(%rip), %rdx
	movl	$4, %ecx
	movq	%rdi, %rbp
	movq	%rsi, %rbx
	subq	$8, %rsp
	.cfi_def_cfa_offset 32
	call	string_eq
	testl	%eax, %eax
	movl	$1, %edx
	jne	.L1658
	leaq	.LC86(%rip), %rdx
	movl	$1, %ecx
	movq	%rbp, %rdi
	movq	%rbx, %rsi
	call	string_eq
	xorl	%edx, %edx
	testl	%eax, %eax
	setne	%dl
.L1658:
	addq	$8, %rsp
	.cfi_def_cfa_offset 24
	movl	%edx, %eax
	popq	%rbx
	.cfi_def_cfa_offset 16
	popq	%rbp
	.cfi_def_cfa_offset 8
	ret
	.cfi_endproc
.LFE263:
	.size	string_bool, .-string_bool
	.section	.text.string_ne,"ax",@progbits
	.p2align 4,,15
	.globl	string_ne
	.type	string_ne, @function
string_ne:
.LFB274:
	.cfi_startproc
	subq	$8, %rsp
	.cfi_def_cfa_offset 16
	call	string_eq
	testl	%eax, %eax
	sete	%al
	addq	$8, %rsp
	.cfi_def_cfa_offset 8
	movzbl	%al, %eax
	ret
	.cfi_endproc
.LFE274:
	.size	string_ne, .-string_ne
	.section	.text.array_string_eq,"ax",@progbits
	.p2align 4,,15
	.globl	array_string_eq
	.type	array_string_eq, @function
array_string_eq:
.LFB122:
	.cfi_startproc
	pushq	%r13
	.cfi_def_cfa_offset 16
	.cfi_offset 13, -16
	pushq	%r12
	.cfi_def_cfa_offset 24
	.cfi_offset 12, -24
	pushq	%rbp
	.cfi_def_cfa_offset 32
	.cfi_offset 6, -32
	pushq	%rbx
	.cfi_def_cfa_offset 40
	.cfi_offset 3, -40
	subq	$8, %rsp
	.cfi_def_cfa_offset 48
	movl	56(%rsp), %r12d
	movl	80(%rsp), %ebp
	cmpl	%r12d, %ebp
	je	.L1677
.L1666:
	addq	$8, %rsp
	.cfi_remember_state
	.cfi_def_cfa_offset 40
	xorl	%eax, %eax
	popq	%rbx
	.cfi_def_cfa_offset 32
	popq	%rbp
	.cfi_def_cfa_offset 24
	popq	%r12
	.cfi_def_cfa_offset 16
	popq	%r13
	.cfi_def_cfa_offset 8
	ret
	.p2align 4,,10
	.p2align 3
.L1677:
	.cfi_restore_state
	xorl	%ebx, %ebx
	testl	%ebp, %ebp
	jg	.L1667
	jmp	.L1669
	.p2align 4,,10
	.p2align 3
.L1678:
	addl	$1, %ebx
	cmpl	%ebx, %ebp
	je	.L1669
.L1667:
	subq	$8, %rsp
	.cfi_def_cfa_offset 56
	movl	%ebx, %edi
	pushq	96(%rsp)
	.cfi_def_cfa_offset 64
	pushq	96(%rsp)
	.cfi_def_cfa_offset 72
	pushq	96(%rsp)
	.cfi_def_cfa_offset 80
	call	array_get
	movl	%r12d, 88(%rsp)
	addq	$24, %rsp
	.cfi_def_cfa_offset 56
	movq	%rax, %r13
	pushq	72(%rsp)
	.cfi_def_cfa_offset 64
	pushq	72(%rsp)
	.cfi_def_cfa_offset 72
	movl	%ebx, %edi
	pushq	72(%rsp)
	.cfi_def_cfa_offset 80
	call	array_get
	movq	0(%r13), %rdx
	movq	(%rax), %rdi
	addq	$32, %rsp
	.cfi_def_cfa_offset 48
	movq	8(%rax), %rsi
	movq	8(%r13), %rcx
	call	string_eq
	testl	%eax, %eax
	jne	.L1678
	jmp	.L1666
	.p2align 4,,10
	.p2align 3
.L1669:
	addq	$8, %rsp
	.cfi_def_cfa_offset 40
	movl	$1, %eax
	popq	%rbx
	.cfi_def_cfa_offset 32
	popq	%rbp
	.cfi_def_cfa_offset 24
	popq	%r12
	.cfi_def_cfa_offset 16
	popq	%r13
	.cfi_def_cfa_offset 8
	ret
	.cfi_endproc
.LFE122:
	.size	array_string_eq, .-array_string_eq
	.section	.text.ustring_eq,"ax",@progbits
	.p2align 4,,15
	.globl	ustring_eq
	.type	ustring_eq, @function
ustring_eq:
.LFB320:
	.cfi_startproc
	subq	$8, %rsp
	.cfi_def_cfa_offset 16
	xorl	%eax, %eax
	movl	104(%rsp), %ecx
	cmpl	%ecx, 56(%rsp)
	je	.L1684
	addq	$8, %rsp
	.cfi_remember_state
	.cfi_def_cfa_offset 8
	ret
	.p2align 4,,10
	.p2align 3
.L1684:
	.cfi_restore_state
	movq	24(%rsp), %rsi
	movq	64(%rsp), %rdx
	movq	72(%rsp), %rcx
	movq	16(%rsp), %rdi
	call	string_eq
	testl	%eax, %eax
	setne	%al
	addq	$8, %rsp
	.cfi_def_cfa_offset 8
	movzbl	%al, %eax
	ret
	.cfi_endproc
.LFE320:
	.size	ustring_eq, .-ustring_eq
	.section	.text.ustring_ne,"ax",@progbits
	.p2align 4,,15
	.globl	ustring_ne
	.type	ustring_ne, @function
ustring_ne:
.LFB321:
	.cfi_startproc
	subq	$8, %rsp
	.cfi_def_cfa_offset 16
	movl	$1, %eax
	movl	104(%rsp), %edx
	cmpl	%edx, 56(%rsp)
	je	.L1690
	addq	$8, %rsp
	.cfi_remember_state
	.cfi_def_cfa_offset 8
	ret
	.p2align 4,,10
	.p2align 3
.L1690:
	.cfi_restore_state
	movl	24(%rsp), %esi
	movl	72(%rsp), %ecx
	movq	64(%rsp), %rdx
	movq	16(%rsp), %rdi
	call	string_eq
	testl	%eax, %eax
	sete	%al
	addq	$8, %rsp
	.cfi_def_cfa_offset 8
	movzbl	%al, %eax
	ret
	.cfi_endproc
.LFE321:
	.size	ustring_ne, .-ustring_ne
	.section	.text.ustring_le,"ax",@progbits
	.p2align 4,,15
	.globl	ustring_le
	.type	ustring_le, @function
ustring_le:
.LFB323:
	.cfi_startproc
	pushq	%rbp
	.cfi_def_cfa_offset 16
	.cfi_offset 6, -16
	pushq	%rbx
	.cfi_def_cfa_offset 24
	.cfi_offset 3, -24
	subq	$104, %rsp
	.cfi_def_cfa_offset 128
	movdqu	128(%rsp), %xmm0
	movq	176(%rsp), %rdx
	movq	184(%rsp), %rcx
	movaps	%xmm0, (%rsp)
	movq	8(%rsp), %rsi
	movq	%xmm0, %rdi
	movl	168(%rsp), %ebp
	movl	216(%rsp), %ebx
	call	string_lt
	testl	%eax, %eax
	movl	$1, %edx
	jne	.L1691
	xorl	%edx, %edx
	cmpl	%ebx, %ebp
	je	.L1696
.L1691:
	addq	$104, %rsp
	.cfi_remember_state
	.cfi_def_cfa_offset 24
	movl	%edx, %eax
	popq	%rbx
	.cfi_def_cfa_offset 16
	popq	%rbp
	.cfi_def_cfa_offset 8
	ret
	.p2align 4,,10
	.p2align 3
.L1696:
	.cfi_restore_state
	movl	136(%rsp), %esi
	movl	184(%rsp), %ecx
	movq	176(%rsp), %rdx
	movq	128(%rsp), %rdi
	call	string_eq
	xorl	%edx, %edx
	testl	%eax, %eax
	setne	%dl
	addq	$104, %rsp
	.cfi_def_cfa_offset 24
	movl	%edx, %eax
	popq	%rbx
	.cfi_def_cfa_offset 16
	popq	%rbp
	.cfi_def_cfa_offset 8
	ret
	.cfi_endproc
.LFE323:
	.size	ustring_le, .-ustring_le
	.section	.text.array_string_contains,"ax",@progbits
	.p2align 4,,15
	.globl	array_string_contains
	.type	array_string_contains, @function
array_string_contains:
.LFB304:
	.cfi_startproc
	pushq	%r13
	.cfi_def_cfa_offset 16
	.cfi_offset 13, -16
	pushq	%r12
	.cfi_def_cfa_offset 24
	.cfi_offset 12, -24
	pushq	%rbp
	.cfi_def_cfa_offset 32
	.cfi_offset 6, -32
	pushq	%rbx
	.cfi_def_cfa_offset 40
	.cfi_offset 3, -40
	subq	$8, %rsp
	.cfi_def_cfa_offset 48
	movl	56(%rsp), %eax
	testl	%eax, %eax
	jle	.L1698
	movq	48(%rsp), %rbx
	subl	$1, %eax
	movq	%rsi, %r12
	salq	$4, %rax
	movq	%rdi, %rbp
	leaq	16(%rbx,%rax), %r13
	jmp	.L1701
	.p2align 4,,10
	.p2align 3
.L1699:
	addq	$16, %rbx
	cmpq	%r13, %rbx
	je	.L1698
.L1701:
	movq	(%rbx), %rdi
	movq	8(%rbx), %rsi
	movq	%rbp, %rdx
	movq	%r12, %rcx
	call	string_eq
	testl	%eax, %eax
	je	.L1699
	addq	$8, %rsp
	.cfi_remember_state
	.cfi_def_cfa_offset 40
	movl	$1, %eax
	popq	%rbx
	.cfi_def_cfa_offset 32
	popq	%rbp
	.cfi_def_cfa_offset 24
	popq	%r12
	.cfi_def_cfa_offset 16
	popq	%r13
	.cfi_def_cfa_offset 8
	ret
	.p2align 4,,10
	.p2align 3
.L1698:
	.cfi_restore_state
	addq	$8, %rsp
	.cfi_def_cfa_offset 40
	xorl	%eax, %eax
	popq	%rbx
	.cfi_def_cfa_offset 32
	popq	%rbp
	.cfi_def_cfa_offset 24
	popq	%r12
	.cfi_def_cfa_offset 16
	popq	%r13
	.cfi_def_cfa_offset 8
	ret
	.cfi_endproc
.LFE304:
	.size	array_string_contains, .-array_string_contains
	.section	.text.string_le,"ax",@progbits
	.p2align 4,,15
	.globl	string_le
	.type	string_le, @function
string_le:
.LFB276:
	.cfi_startproc
	pushq	%r14
	.cfi_def_cfa_offset 16
	.cfi_offset 14, -16
	pushq	%r13
	.cfi_def_cfa_offset 24
	.cfi_offset 13, -24
	movq	%rcx, %r14
	pushq	%rbp
	.cfi_def_cfa_offset 32
	.cfi_offset 6, -32
	pushq	%rbx
	.cfi_def_cfa_offset 40
	.cfi_offset 3, -40
	movq	%rdx, %r13
	movq	%rdi, %rbp
	movq	%rsi, %rbx
	subq	$8, %rsp
	.cfi_def_cfa_offset 48
	call	string_lt
	testl	%eax, %eax
	movl	$1, %edx
	jne	.L1704
	movq	%r13, %rdx
	movq	%r14, %rcx
	movq	%rbp, %rdi
	movq	%rbx, %rsi
	call	string_eq
	xorl	%edx, %edx
	testl	%eax, %eax
	setne	%dl
.L1704:
	addq	$8, %rsp
	.cfi_def_cfa_offset 40
	movl	%edx, %eax
	popq	%rbx
	.cfi_def_cfa_offset 32
	popq	%rbp
	.cfi_def_cfa_offset 24
	popq	%r13
	.cfi_def_cfa_offset 16
	popq	%r14
	.cfi_def_cfa_offset 8
	ret
	.cfi_endproc
.LFE276:
	.size	string_le, .-string_le
	.section	.text.string_gt,"ax",@progbits
	.p2align 4,,15
	.globl	string_gt
	.type	string_gt, @function
string_gt:
.LFB277:
	.cfi_startproc
	pushq	%r14
	.cfi_def_cfa_offset 16
	.cfi_offset 14, -16
	pushq	%r13
	.cfi_def_cfa_offset 24
	.cfi_offset 13, -24
	movq	%rcx, %r14
	pushq	%rbp
	.cfi_def_cfa_offset 32
	.cfi_offset 6, -32
	pushq	%rbx
	.cfi_def_cfa_offset 40
	.cfi_offset 3, -40
	movq	%rdx, %r13
	movq	%rdi, %rbp
	movq	%rsi, %rbx
	subq	$8, %rsp
	.cfi_def_cfa_offset 48
	call	string_lt
	xorl	%edx, %edx
	testl	%eax, %eax
	jne	.L1709
	movq	%r13, %rdx
	movq	%r14, %rcx
	movq	%rbp, %rdi
	movq	%rbx, %rsi
	call	string_eq
	xorl	%edx, %edx
	testl	%eax, %eax
	sete	%dl
.L1709:
	addq	$8, %rsp
	.cfi_def_cfa_offset 40
	movl	%edx, %eax
	popq	%rbx
	.cfi_def_cfa_offset 32
	popq	%rbp
	.cfi_def_cfa_offset 24
	popq	%r13
	.cfi_def_cfa_offset 16
	popq	%r14
	.cfi_def_cfa_offset 8
	ret
	.cfi_endproc
.LFE277:
	.size	string_gt, .-string_gt
	.section	.text.compare_lower_strings,"ax",@progbits
	.p2align 4,,15
	.globl	compare_lower_strings
	.type	compare_lower_strings, @function
compare_lower_strings:
.LFB313:
	.cfi_startproc
	pushq	%r15
	.cfi_def_cfa_offset 16
	.cfi_offset 15, -16
	pushq	%r14
	.cfi_def_cfa_offset 24
	.cfi_offset 14, -24
	pushq	%r13
	.cfi_def_cfa_offset 32
	.cfi_offset 13, -32
	pushq	%r12
	.cfi_def_cfa_offset 40
	.cfi_offset 12, -40
	movq	%rsi, %r12
	pushq	%rbp
	.cfi_def_cfa_offset 48
	.cfi_offset 6, -48
	pushq	%rbx
	.cfi_def_cfa_offset 56
	.cfi_offset 3, -56
	subq	$8, %rsp
	.cfi_def_cfa_offset 64
	movl	8(%rdi), %ebp
	movq	(%rdi), %r13
	leal	1(%rbp), %edi
	call	v_malloc
	testl	%ebp, %ebp
	movq	%rax, %rbx
	jle	.L1715
	call	__ctype_tolower_loc@PLT
	leal	-1(%rbp), %esi
	xorl	%edx, %edx
	addq	$1, %rsi
	.p2align 4,,10
	.p2align 3
.L1716:
	movzbl	0(%r13,%rdx), %edi
	movq	(%rax), %rcx
	movl	(%rcx,%rdi,4), %ecx
	movb	%cl, (%rbx,%rdx)
	addq	$1, %rdx
	cmpq	%rdx, %rsi
	jne	.L1716
.L1717:
	movq	(%r12), %r15
	movl	8(%r12), %r12d
	movq	%rbp, %r13
	leal	1(%r12), %edi
	call	v_malloc
	testl	%r12d, %r12d
	movq	%rax, %r14
	jle	.L1718
	call	__ctype_tolower_loc@PLT
	leal	-1(%r12), %ecx
	xorl	%edx, %edx
	addq	$1, %rcx
	.p2align 4,,10
	.p2align 3
.L1719:
	movzbl	(%r15,%rdx), %edi
	movq	(%rax), %rsi
	movl	(%rsi,%rdi,4), %edi
	movb	%dil, (%r14,%rdx)
	addq	$1, %rdx
	cmpq	%rcx, %rdx
	jne	.L1719
.L1720:
	movq	%r12, %rcx
	movq	%r14, %rdx
	movq	%rbx, %rdi
	movq	%r13, %rsi
	call	string_lt
	testl	%eax, %eax
	jne	.L1723
	movq	%r14, %rdx
	movq	%r12, %rcx
	movq	%rbx, %rdi
	movq	%rbp, %rsi
	call	string_lt
	xorl	%edx, %edx
	testl	%eax, %eax
	jne	.L1714
	movq	%r14, %rdx
	movq	%r12, %rcx
	movq	%rbx, %rdi
	movq	%rbp, %rsi
	call	string_eq
	xorl	%edx, %edx
	testl	%eax, %eax
	sete	%dl
.L1714:
	addq	$8, %rsp
	.cfi_remember_state
	.cfi_def_cfa_offset 56
	movl	%edx, %eax
	popq	%rbx
	.cfi_def_cfa_offset 48
	popq	%rbp
	.cfi_def_cfa_offset 40
	popq	%r12
	.cfi_def_cfa_offset 32
	popq	%r13
	.cfi_def_cfa_offset 24
	popq	%r14
	.cfi_def_cfa_offset 16
	popq	%r15
	.cfi_def_cfa_offset 8
	ret
	.p2align 4,,10
	.p2align 3
.L1718:
	.cfi_restore_state
	testq	%rax, %rax
	jne	.L1720
.L1721:
	call	tos.part.7
	.p2align 4,,10
	.p2align 3
.L1715:
	testq	%rax, %rax
	jne	.L1717
	jmp	.L1721
	.p2align 4,,10
	.p2align 3
.L1723:
	movl	$-1, %edx
	jmp	.L1714
	.cfi_endproc
.LFE313:
	.size	compare_lower_strings, .-compare_lower_strings
	.section	.text.compare_strings,"ax",@progbits
	.p2align 4,,15
	.globl	compare_strings
	.type	compare_strings, @function
compare_strings:
.LFB311:
	.cfi_startproc
	pushq	%r13
	.cfi_def_cfa_offset 16
	.cfi_offset 13, -16
	pushq	%r12
	.cfi_def_cfa_offset 24
	.cfi_offset 12, -24
	pushq	%rbp
	.cfi_def_cfa_offset 32
	.cfi_offset 6, -32
	pushq	%rbx
	.cfi_def_cfa_offset 40
	.cfi_offset 3, -40
	movq	%rsi, %rbp
	movq	%rdi, %rbx
	subq	$8, %rsp
	.cfi_def_cfa_offset 48
	movq	(%rdi), %rdi
	movq	8(%rbx), %rsi
	movq	0(%rbp), %rdx
	movq	8(%rbp), %rcx
	call	string_lt
	testl	%eax, %eax
	jne	.L1733
	movq	0(%rbp), %r13
	movq	(%rbx), %r12
	movl	8(%rbp), %ebp
	movl	8(%rbx), %ebx
	movq	%r13, %rdx
	movq	%r12, %rdi
	movq	%rbp, %rcx
	movq	%rbx, %rsi
	call	string_lt
	xorl	%edx, %edx
	testl	%eax, %eax
	jne	.L1731
	movq	%r13, %rdx
	movq	%rbp, %rcx
	movq	%r12, %rdi
	movq	%rbx, %rsi
	call	string_eq
	xorl	%edx, %edx
	testl	%eax, %eax
	sete	%dl
.L1731:
	addq	$8, %rsp
	.cfi_remember_state
	.cfi_def_cfa_offset 40
	movl	%edx, %eax
	popq	%rbx
	.cfi_def_cfa_offset 32
	popq	%rbp
	.cfi_def_cfa_offset 24
	popq	%r12
	.cfi_def_cfa_offset 16
	popq	%r13
	.cfi_def_cfa_offset 8
	ret
	.p2align 4,,10
	.p2align 3
.L1733:
	.cfi_restore_state
	movl	$-1, %edx
	jmp	.L1731
	.cfi_endproc
.LFE311:
	.size	compare_strings, .-compare_strings
	.section	.text.ustring_gt,"ax",@progbits
	.p2align 4,,15
	.globl	ustring_gt
	.type	ustring_gt, @function
ustring_gt:
.LFB324:
	.cfi_startproc
	pushq	%r15
	.cfi_def_cfa_offset 16
	.cfi_offset 15, -16
	pushq	%r14
	.cfi_def_cfa_offset 24
	.cfi_offset 14, -24
	pushq	%r13
	.cfi_def_cfa_offset 32
	.cfi_offset 13, -32
	pushq	%r12
	.cfi_def_cfa_offset 40
	.cfi_offset 12, -40
	pushq	%rbp
	.cfi_def_cfa_offset 48
	.cfi_offset 6, -48
	pushq	%rbx
	.cfi_def_cfa_offset 56
	.cfi_offset 3, -56
	subq	$104, %rsp
	.cfi_def_cfa_offset 160
	movl	168(%rsp), %ebx
	movq	208(%rsp), %r15
	movl	216(%rsp), %ebp
	movq	160(%rsp), %r12
	movl	200(%rsp), %r14d
	movl	248(%rsp), %r13d
	movl	%ebx, 56(%rsp)
	movq	%r15, (%rsp)
	movl	%ebp, 8(%rsp)
	movq	(%rsp), %rdx
	movq	%r12, %rdi
	movq	8(%rsp), %rcx
	movq	56(%rsp), %rsi
	call	string_lt
	xorl	%edx, %edx
	testl	%eax, %eax
	jne	.L1736
	cmpl	%r13d, %r14d
	movl	$1, %edx
	je	.L1741
.L1736:
	addq	$104, %rsp
	.cfi_remember_state
	.cfi_def_cfa_offset 56
	movl	%edx, %eax
	popq	%rbx
	.cfi_def_cfa_offset 48
	popq	%rbp
	.cfi_def_cfa_offset 40
	popq	%r12
	.cfi_def_cfa_offset 32
	popq	%r13
	.cfi_def_cfa_offset 24
	popq	%r14
	.cfi_def_cfa_offset 16
	popq	%r15
	.cfi_def_cfa_offset 8
	ret
	.p2align 4,,10
	.p2align 3
.L1741:
	.cfi_restore_state
	movq	%r15, %rdx
	movl	%ebx, %esi
	movl	%ebp, %ecx
	movq	%r12, %rdi
	call	string_eq
	xorl	%edx, %edx
	testl	%eax, %eax
	sete	%dl
	jmp	.L1736
	.cfi_endproc
.LFE324:
	.size	ustring_gt, .-ustring_gt
	.section	.text.string_split_nth.constprop.37,"ax",@progbits
	.p2align 4,,15
	.type	string_split_nth.constprop.37, @function
string_split_nth.constprop.37:
.LFB589:
	.cfi_startproc
	pushq	%r15
	.cfi_def_cfa_offset 16
	.cfi_offset 15, -16
	pushq	%r14
	.cfi_def_cfa_offset 24
	.cfi_offset 14, -24
	movq	%rsi, %r15
	pushq	%r13
	.cfi_def_cfa_offset 32
	.cfi_offset 13, -32
	pushq	%r12
	.cfi_def_cfa_offset 40
	.cfi_offset 12, -40
	movl	$1, %esi
	pushq	%rbp
	.cfi_def_cfa_offset 48
	.cfi_offset 6, -48
	pushq	%rbx
	.cfi_def_cfa_offset 56
	.cfi_offset 3, -56
	movq	%rcx, %r14
	movq	%rdx, %rbx
	movl	%edx, %ebp
	subq	$104, %rsp
	.cfi_def_cfa_offset 160
	movq	%rdi, 24(%rsp)
	movl	$16, %edi
	movq	%r8, 32(%rsp)
	movq	%fs:40, %rax
	movq	%rax, 88(%rsp)
	xorl	%eax, %eax
	call	calloc@PLT
	movq	%rax, 64(%rsp)
	movabsq	$4294967296, %rax
	testl	%ebx, %ebx
	movq	%rax, 72(%rsp)
	movl	%ebx, %eax
	movl	$16, 80(%rsp)
	movq	%rax, (%rsp)
	js	.L1743
	leaq	48(%rsp), %rax
	xorl	%edx, %edx
	xorl	%ecx, %ecx
	movabsq	$-4294967296, %r12
	movq	%rax, 8(%rsp)
	leaq	64(%rsp), %rax
	movq	%rax, 16(%rsp)
	jmp	.L1749
	.p2align 4,,10
	.p2align 3
.L1747:
	andq	%r12, %rsi
	movq	%rdi, 48(%rsp)
	movq	16(%rsp), %rdi
	orq	%rcx, %rsi
	movq	%rsi, 56(%rsp)
	movq	8(%rsp), %rsi
	call	array_push
	movl	%r13d, %ecx
	movl	%r13d, %edx
.L1746:
	cmpl	%ebp, %r13d
	jg	.L1743
.L1749:
	movslq	%ecx, %rax
	movzbl	(%r14), %edi
	leal	1(%rcx), %r13d
	cmpb	%dil, (%r15,%rax)
	jne	.L1763
.L1744:
	andq	%r12, %rbx
	orq	(%rsp), %rbx
	movq	%r15, %rdi
	movq	%rbx, %rsi
	call	string_substr
	movq	%rdx, %rsi
	movq	%rax, %rdi
	movl	%edx, %ecx
	testl	%esi, %esi
	jle	.L1747
	movzbl	(%r14), %r9d
	cmpb	%r9b, (%rax)
	jne	.L1747
	cmpl	$1, %ecx
	jne	.L1764
	leaq	.LC37(%rip), %rdi
	xorl	%edx, %edx
.L1748:
	movq	40(%rsp), %rax
	movl	%edx, %ecx
	andq	%r12, %rax
	orq	%rcx, %rax
	movq	%rax, 40(%rsp)
	movq	%rax, %rsi
	jmp	.L1747
	.p2align 4,,10
	.p2align 3
.L1743:
	movq	32(%rsp), %rcx
	movabsq	$-4294967296, %r13
	andq	%r13, %rbx
	orq	(%rsp), %rbx
	cmpl	%ebp, %ecx
	jg	.L1753
	testl	%ecx, %ecx
	jle	.L1751
	leal	-1(%rcx), %eax
	subl	%ecx, %ebp
	movq	%r14, 32(%rsp)
	movl	%ebp, 8(%rsp)
	xorl	%r12d, %r12d
	movq	%rcx, %r14
	addq	$1, %rax
	movq	%rax, 40(%rsp)
	movl	%ecx, %eax
	movq	%rax, 16(%rsp)
	jmp	.L1752
	.p2align 4,,10
	.p2align 3
.L1765:
	addq	$1, %r12
	cmpq	%r12, 40(%rsp)
	je	.L1751
.L1752:
	movq	%r14, %rcx
	movq	32(%rsp), %rdi
	movl	%r12d, %edx
	andq	%r13, %rcx
	orq	16(%rsp), %rcx
	andq	%r13, %rbx
	movq	%rcx, %rsi
	movq	%rcx, %r14
	call	string_at
	orq	(%rsp), %rbx
	movl	%eax, %ebp
	movl	8(%rsp), %eax
	movq	%r15, %rdi
	leal	(%rax,%r12), %edx
	movq	%rbx, %rsi
	call	string_at
	cmpb	%al, %bpl
	je	.L1765
.L1753:
	movq	24(%rsp), %rdi
	movq	80(%rsp), %rax
	movdqa	64(%rsp), %xmm0
	movq	88(%rsp), %rbx
	xorq	%fs:40, %rbx
	movq	%rax, 16(%rdi)
	movq	%rdi, %rax
	movups	%xmm0, (%rdi)
	jne	.L1766
	addq	$104, %rsp
	.cfi_remember_state
	.cfi_def_cfa_offset 56
	popq	%rbx
	.cfi_def_cfa_offset 48
	popq	%rbp
	.cfi_def_cfa_offset 40
	popq	%r12
	.cfi_def_cfa_offset 32
	popq	%r13
	.cfi_def_cfa_offset 24
	popq	%r14
	.cfi_def_cfa_offset 16
	popq	%r15
	.cfi_def_cfa_offset 8
	ret
	.p2align 4,,10
	.p2align 3
.L1763:
	.cfi_restore_state
	leal	-1(%rbp), %eax
	cmpl	%eax, %ecx
	movl	%r13d, %ecx
	jne	.L1746
	leal	1(%rbp), %r13d
	jmp	.L1744
	.p2align 4,,10
	.p2align 3
.L1751:
	leaq	.LC37(%rip), %rax
	leaq	48(%rsp), %rsi
	leaq	64(%rsp), %rdi
	movl	$0, 56(%rsp)
	movq	%rax, 48(%rsp)
	call	array_push
	jmp	.L1753
	.p2align 4,,10
	.p2align 3
.L1764:
	movl	%esi, %ecx
	movl	$1, %edx
	call	string_substr
	movq	%rdx, 40(%rsp)
	movq	%rax, %rdi
	jmp	.L1748
.L1766:
	call	__stack_chk_fail@PLT
	.cfi_endproc
.LFE589:
	.size	string_split_nth.constprop.37, .-string_split_nth.constprop.37
	.section	.text.string_split_nth,"ax",@progbits
	.p2align 4,,15
	.globl	string_split_nth
	.type	string_split_nth, @function
string_split_nth:
.LFB281:
	.cfi_startproc
	pushq	%r15
	.cfi_def_cfa_offset 16
	.cfi_offset 15, -16
	pushq	%r14
	.cfi_def_cfa_offset 24
	.cfi_offset 14, -24
	movq	%r8, %r14
	pushq	%r13
	.cfi_def_cfa_offset 32
	.cfi_offset 13, -32
	pushq	%r12
	.cfi_def_cfa_offset 40
	.cfi_offset 12, -40
	movq	%rdx, %r13
	pushq	%rbp
	.cfi_def_cfa_offset 48
	.cfi_offset 6, -48
	pushq	%rbx
	.cfi_def_cfa_offset 56
	.cfi_offset 3, -56
	movq	%rcx, %r12
	movq	%rdx, %rbx
	movl	%edx, %r15d
	movl	%r8d, %ebp
	subq	$136, %rsp
	.cfi_def_cfa_offset 192
	movq	%rdi, 48(%rsp)
	movq	%rsi, 8(%rsp)
	movl	$16, %edi
	movl	$1, %esi
	movq	%r8, 56(%rsp)
	movl	%r9d, 4(%rsp)
	movq	%fs:40, %rcx
	movq	%rcx, 120(%rsp)
	xorl	%ecx, %ecx
	call	calloc@PLT
	movabsq	$4294967296, %rcx
	testl	%r14d, %r14d
	movq	%rax, 96(%rsp)
	movq	%rcx, 104(%rsp)
	movl	$16, 112(%rsp)
	jne	.L1768
	testl	%r13d, %r13d
	jle	.L1770
	movl	4(%rsp), %eax
	movq	8(%rsp), %rdi
	testl	%eax, %eax
	movzbl	(%rdi), %r14d
	setg	24(%rsp)
	cmpl	$1, %eax
	je	.L1821
	leal	-1(%r13), %ebx
	leaq	80(%rsp), %rax
	leaq	96(%rsp), %rbp
	movl	$2, %r12d
	addq	$2, %rbx
	movq	%rax, 16(%rsp)
	.p2align 4,,10
	.p2align 3
.L1810:
	movl	$2, %edi
	call	v_malloc
	movq	16(%rsp), %rsi
	movb	%r14b, (%rax)
	movq	%rbp, %rdi
	movb	$0, 1(%rax)
	movq	%rax, 80(%rsp)
	movl	$1, 88(%rsp)
	call	array_push
	cmpq	%r12, %rbx
	movl	%r12d, %edx
	je	.L1770
	movq	8(%rsp), %rax
	movzbl	-1(%rax,%r12), %r14d
	addq	$1, %r12
	cmpl	%edx, 4(%rsp)
	jg	.L1810
	cmpb	$0, 24(%rsp)
	je	.L1810
	movq	%rax, %rdi
.L1771:
	movq	%r13, %rsi
	movl	%r15d, %ecx
	call	string_substr
	movq	16(%rsp), %rsi
	movq	%rbp, %rdi
	movq	%rax, 80(%rsp)
	movq	%rdx, 88(%rsp)
	call	array_push
.L1770:
	movq	48(%rsp), %rdi
	movq	112(%rsp), %rax
	movdqa	96(%rsp), %xmm0
	movq	%rax, 16(%rdi)
	movq	%rdi, %rax
	movups	%xmm0, (%rdi)
	movq	120(%rsp), %rdi
	xorq	%fs:40, %rdi
